	.file	"ast.c"
	.text
.Ltext0:
	.cfi_sections	.debug_frame
	.globl	decl_create
	.def	decl_create;	.scl	2;	.type	32;	.endef
	.seh_proc	decl_create
decl_create:
.LFB9:
	.file 1 "./src/ast.c"
	.loc 1 6 0
	.cfi_startproc
	pushq	%rbp
	.seh_pushreg	%rbp
	.cfi_def_cfa_offset 16
	.cfi_offset 6, -16
	movq	%rsp, %rbp
	.seh_setframe	%rbp, 0
	.cfi_def_cfa_register 6
	subq	$48, %rsp
	.seh_stackalloc	48
	.seh_endprologue
	movq	%rcx, 16(%rbp)
	movq	%rdx, 24(%rbp)
	movq	%r8, 32(%rbp)
	movq	%r9, 40(%rbp)
	.loc 1 7 0
	movl	$136, %ecx
	call	malloc
	movq	%rax, -8(%rbp)
	.loc 1 8 0
	movq	-8(%rbp), %rax
	movl	$100, %r8d
	movl	$0, %edx
	movq	%rax, %rcx
	call	memset
	.loc 1 9 0
	movq	-8(%rbp), %rax
	movq	16(%rbp), %rdx
	movq	%rax, %rcx
	call	strcpy
	.loc 1 10 0
	movq	-8(%rbp), %rax
	movq	24(%rbp), %rdx
	movq	%rdx, 104(%rax)
	.loc 1 11 0
	movq	-8(%rbp), %rax
	movq	32(%rbp), %rdx
	movq	%rdx, 112(%rax)
	.loc 1 12 0
	movq	-8(%rbp), %rax
	movq	40(%rbp), %rdx
	movq	%rdx, 120(%rax)
	.loc 1 13 0
	movq	-8(%rbp), %rax
	movq	$0, 128(%rax)
	.loc 1 14 0
	movq	-8(%rbp), %rax
	.loc 1 15 0
	addq	$48, %rsp
	popq	%rbp
	.cfi_restore 6
	.cfi_def_cfa 7, 8
	ret
	.cfi_endproc
.LFE9:
	.seh_endproc
	.globl	stmt_create
	.def	stmt_create;	.scl	2;	.type	32;	.endef
	.seh_proc	stmt_create
stmt_create:
.LFB10:
	.loc 1 20 0
	.cfi_startproc
	pushq	%rbp
	.seh_pushreg	%rbp
	.cfi_def_cfa_offset 16
	.cfi_offset 6, -16
	movq	%rsp, %rbp
	.seh_setframe	%rbp, 0
	.cfi_def_cfa_register 6
	subq	$48, %rsp
	.seh_stackalloc	48
	.seh_endprologue
	movl	%ecx, 16(%rbp)
	movq	%rdx, 24(%rbp)
	movq	%r8, 32(%rbp)
	movq	%r9, 40(%rbp)
	.loc 1 21 0
	movl	$72, %ecx
	call	malloc
	movq	%rax, -8(%rbp)
	.loc 1 22 0
	movq	-8(%rbp), %rax
	movl	16(%rbp), %edx
	movl	%edx, (%rax)
	.loc 1 23 0
	movq	-8(%rbp), %rax
	movq	24(%rbp), %rdx
	movq	%rdx, 8(%rax)
	.loc 1 24 0
	movq	-8(%rbp), %rax
	movq	32(%rbp), %rdx
	movq	%rdx, 16(%rax)
	.loc 1 25 0
	movq	-8(%rbp), %rax
	movq	40(%rbp), %rdx
	movq	%rdx, 24(%rax)
	.loc 1 26 0
	movq	-8(%rbp), %rax
	movq	48(%rbp), %rdx
	movq	%rdx, 32(%rax)
	.loc 1 27 0
	movq	-8(%rbp), %rax
	movq	56(%rbp), %rdx
	movq	%rdx, 40(%rax)
	.loc 1 28 0
	movq	-8(%rbp), %rax
	movq	64(%rbp), %rdx
	movq	%rdx, 48(%rax)
	.loc 1 29 0
	movq	-8(%rbp), %rax
	movq	$0, 56(%rax)
	.loc 1 30 0
	movq	-8(%rbp), %rax
	movl	80(%rbp), %edx
	movl	%edx, 64(%rax)
	.loc 1 31 0
	movq	-8(%rbp), %rax
	.loc 1 32 0
	addq	$48, %rsp
	popq	%rbp
	.cfi_restore 6
	.cfi_def_cfa 7, 8
	ret
	.cfi_endproc
.LFE10:
	.seh_endproc
	.globl	expr_create
	.def	expr_create;	.scl	2;	.type	32;	.endef
	.seh_proc	expr_create
expr_create:
.LFB11:
	.loc 1 37 0
	.cfi_startproc
	pushq	%rbp
	.seh_pushreg	%rbp
	.cfi_def_cfa_offset 16
	.cfi_offset 6, -16
	movq	%rsp, %rbp
	.seh_setframe	%rbp, 0
	.cfi_def_cfa_register 6
	subq	$64, %rsp
	.seh_stackalloc	64
	.seh_endprologue
	movl	%ecx, 16(%rbp)
	movq	%rdx, 24(%rbp)
	movq	%r8, 32(%rbp)
	movl	%r9d, 40(%rbp)
	movl	48(%rbp), %eax
	movb	%al, -20(%rbp)
	.loc 1 38 0
	movl	$56, %ecx
	call	malloc
	movq	%rax, -8(%rbp)
	.loc 1 39 0
	movq	-8(%rbp), %rax
	movl	16(%rbp), %edx
	movl	%edx, (%rax)
	.loc 1 40 0
	movq	-8(%rbp), %rax
	movq	24(%rbp), %rdx
	movq	%rdx, 8(%rax)
	.loc 1 41 0
	movq	-8(%rbp), %rax
	movq	32(%rbp), %rdx
	movq	%rdx, 16(%rax)
	.loc 1 42 0
	movq	-8(%rbp), %rax
	movl	40(%rbp), %edx
	movl	%edx, 40(%rax)
	.loc 1 43 0
	movq	-8(%rbp), %rax
	movzbl	-20(%rbp), %edx
	movb	%dl, 44(%rax)
	.loc 1 44 0
	movl	$100, %ecx
	call	malloc
	movq	%rax, %rdx
	movq	-8(%rbp), %rax
	movq	%rdx, 24(%rax)
	.loc 1 45 0
	cmpq	$0, 56(%rbp)
	je	.L6
	.loc 1 46 0
	movq	-8(%rbp), %rax
	movq	24(%rax), %rax
	movq	56(%rbp), %rdx
	movq	%rax, %rcx
	call	strcpy
.L6:
	.loc 1 47 0
	movq	-8(%rbp), %rax
	movl	64(%rbp), %edx
	movl	%edx, 48(%rax)
	.loc 1 48 0
	movq	-8(%rbp), %rax
	.loc 1 49 0
	addq	$64, %rsp
	popq	%rbp
	.cfi_restore 6
	.cfi_def_cfa 7, 8
	ret
	.cfi_endproc
.LFE11:
	.seh_endproc
	.globl	type_create
	.def	type_create;	.scl	2;	.type	32;	.endef
	.seh_proc	type_create
type_create:
.LFB12:
	.loc 1 54 0
	.cfi_startproc
	pushq	%rbp
	.seh_pushreg	%rbp
	.cfi_def_cfa_offset 16
	.cfi_offset 6, -16
	movq	%rsp, %rbp
	.seh_setframe	%rbp, 0
	.cfi_def_cfa_register 6
	subq	$48, %rsp
	.seh_stackalloc	48
	.seh_endprologue
	movl	%ecx, 16(%rbp)
	movq	%rdx, 24(%rbp)
	movq	%r8, 32(%rbp)
	.loc 1 55 0
	movl	$24, %ecx
	call	malloc
	movq	%rax, -8(%rbp)
	.loc 1 56 0
	movq	-8(%rbp), %rax
	movl	16(%rbp), %edx
	movl	%edx, (%rax)
	.loc 1 57 0
	movq	-8(%rbp), %rax
	movq	24(%rbp), %rdx
	movq	%rdx, 8(%rax)
	.loc 1 58 0
	movq	-8(%rbp), %rax
	movq	32(%rbp), %rdx
	movq	%rdx, 16(%rax)
	.loc 1 59 0
	movq	-8(%rbp), %rax
	.loc 1 60 0
	addq	$48, %rsp
	popq	%rbp
	.cfi_restore 6
	.cfi_def_cfa 7, 8
	ret
	.cfi_endproc
.LFE12:
	.seh_endproc
	.globl	expr_create_string
	.def	expr_create_string;	.scl	2;	.type	32;	.endef
	.seh_proc	expr_create_string
expr_create_string:
.LFB13:
	.loc 1 65 0
	.cfi_startproc
	pushq	%rbp
	.seh_pushreg	%rbp
	.cfi_def_cfa_offset 16
	.cfi_offset 6, -16
	movq	%rsp, %rbp
	.seh_setframe	%rbp, 0
	.cfi_def_cfa_register 6
	subq	$48, %rsp
	.seh_stackalloc	48
	.seh_endprologue
	movq	%rcx, 16(%rbp)
	.loc 1 66 0
	movl	$56, %ecx
	call	malloc
	movq	%rax, -8(%rbp)
	.loc 1 67 0
	movq	-8(%rbp), %rax
	movl	$10, (%rax)
	.loc 1 68 0
	movl	$100, %ecx
	call	malloc
	movq	%rax, %rdx
	movq	-8(%rbp), %rax
	movq	%rdx, 24(%rax)
	.loc 1 69 0
	movq	-8(%rbp), %rax
	movq	24(%rax), %rax
	movq	16(%rbp), %rdx
	movq	%rax, %rcx
	call	strcpy
	.loc 1 70 0
	movq	-8(%rbp), %rax
	.loc 1 71 0
	addq	$48, %rsp
	popq	%rbp
	.cfi_restore 6
	.cfi_def_cfa 7, 8
	ret
	.cfi_endproc
.LFE13:
	.seh_endproc
.Letext0:
	.file 2 "/usr/lib/gcc/x86_64-pc-cygwin/7.4.0/include/stddef.h"
	.file 3 "/usr/include/sys/lock.h"
	.file 4 "/usr/include/sys/_types.h"
	.file 5 "/usr/include/sys/reent.h"
	.file 6 "/usr/include/ctype.h"
	.file 7 "./src/../inc/ast.h"