	.file	"checking_functions.c"
	.text
.Ltext0:
	.cfi_sections	.debug_frame
	.data
	.align 32
.LC0:
	.ascii "string\0"
	.space 3
	.ascii "else\0"
	.space 5
	.ascii "enum\0"
	.space 5
	.ascii "float\0"
	.space 4
	.ascii "for\0"
	.space 6
	.ascii "if\0"
	.space 7
	.ascii "int\0"
	.space 6
	.ascii "return\0"
	.space 3
	.ascii "struct\0"
	.space 3
	.ascii "while\0"
	.space 4
	.ascii "new\0"
	.space 6
	.ascii "delete\0"
	.space 3
	.ascii "defer\0"
	.space 4
	.ascii "print\0"
	.space 4
	.ascii "break\0"
	.space 4
	.ascii "continue\0"
	.space 1
	.ascii "then\0"
	.space 5
	.ascii "import\0"
	.space 3
	.ascii "load\0"
	.space 5
	.ascii "null\0"
	.space 5
	.ascii "main\0"
	.space 5
	.ascii "to\0"
	.space 7
	.ascii "cast\0"
	.space 5
	.ascii "sleep\0"
	.space 4
	.ascii "bool\0"
	.space 5
	.ascii "array_add\0"
	.ascii "true\0"
	.space 5
	.ascii "false\0"
	.space 4
	.ascii "assert\0"
	.space 3
	.ascii "union\0"
	.space 4
	.ascii "scan\0"
	.space 5
	.ascii "char\0"
	.space 5
	.ascii "void\0"
	.space 5
	.text
	.globl	isKeyword
	.def	isKeyword;	.scl	2;	.type	32;	.endef
	.seh_proc	isKeyword
isKeyword:
.LFB9:
	.file 1 "./src/checking_functions.c"
	.loc 1 6 0
	.cfi_startproc
	pushq	%rbp
	.seh_pushreg	%rbp
	.cfi_def_cfa_offset 16
	.cfi_offset 6, -16
	pushq	%rdi
	.seh_pushreg	%rdi
	.cfi_def_cfa_offset 24
	.cfi_offset 5, -24
	pushq	%rsi
	.seh_pushreg	%rsi
	.cfi_def_cfa_offset 32
	.cfi_offset 4, -32
	subq	$384, %rsp
	.seh_stackalloc	384
	.cfi_def_cfa_offset 416
	leaq	128(%rsp), %rbp
	.seh_setframe	%rbp, 128
	.cfi_def_cfa 6, 288
	.seh_endprologue
	movq	%rcx, 288(%rbp)
	.loc 1 7 0
	leaq	-96(%rbp), %rdx
	leaq	.LC0(%rip), %rax
	movl	$41, %ecx
	movq	%rdx, %rdi
	movq	%rax, %rsi
	rep movsq
	movq	%rsi, %rax
	movq	%rdi, %rdx
	movzwl	(%rax), %ecx
	movw	%cx, (%rdx)
	leaq	2(%rdx), %rdx
	leaq	2(%rax), %rax
	.loc 1 14 0
	movl	$0, 248(%rbp)
	.loc 1 15 0
	movl	$0, 252(%rbp)
	jmp	.L2
.L5:
	.loc 1 16 0
	leaq	-96(%rbp), %rcx
	movl	252(%rbp), %eax
	movslq	%eax, %rdx
	movq	%rdx, %rax
	salq	$2, %rax
	addq	%rdx, %rax
	addq	%rax, %rax
	addq	%rcx, %rax
	movq	288(%rbp), %rdx
	movq	%rax, %rcx
	call	strcmp
	testl	%eax, %eax
	jne	.L3
	.loc 1 17 0
	movl	$1, 248(%rbp)
	.loc 1 18 0
	jmp	.L4
.L3:
	.loc 1 15 0 discriminator 2
	addl	$1, 252(%rbp)
.L2:
	.loc 1 15 0 is_stmt 0 discriminator 1
	cmpl	$32, 252(%rbp)
	jle	.L5
.L4:
	.loc 1 21 0 is_stmt 1
	movl	248(%rbp), %eax
	.loc 1 22 0
	addq	$384, %rsp
	popq	%rsi
	.cfi_restore 4
	popq	%rdi
	.cfi_restore 5
	popq	%rbp
	.cfi_restore 6
	.cfi_def_cfa 7, -360
	ret
	.cfi_endproc
.LFE9:
	.seh_endproc
	.section .rdata,"dr"
.LC1:
	.ascii "hexadecimal number\0"
.LC2:
	.ascii "number\0"
	.text
	.globl	isNumber
	.def	isNumber;	.scl	2;	.type	32;	.endef
	.seh_proc	isNumber
isNumber:
.LFB10:
	.loc 1 27 0
	.cfi_startproc
	pushq	%rbp
	.seh_pushreg	%rbp
	.cfi_def_cfa_offset 16
	.cfi_offset 6, -16
	pushq	%rdi
	.seh_pushreg	%rdi
	.cfi_def_cfa_offset 24
	.cfi_offset 5, -24
	pushq	%rsi
	.seh_pushreg	%rsi
	.cfi_def_cfa_offset 32
	.cfi_offset 4, -32
	pushq	%rbx
	.seh_pushreg	%rbx
	.cfi_def_cfa_offset 40
	.cfi_offset 3, -40
	subq	$72, %rsp
	.seh_stackalloc	72
	.cfi_def_cfa_offset 112
	leaq	128(%rsp), %rbp
	.seh_setframe	%rbp, 128
	.cfi_def_cfa 6, -16
	.seh_endprologue
	movq	%rcx, -16(%rbp)
	movl	%edx, -8(%rbp)
	movl	%r8d, 0(%rbp)
	movq	%r9, 8(%rbp)
	.loc 1 27 0
	movq	%rsp, %rax
	movq	%rax, %rbx
	.loc 1 28 0
	movl	$0, -68(%rbp)
	.loc 1 29 0
	movl	0(%rbp), %edx
	movslq	%edx, %rax
	subq	$1, %rax
	movq	%rax, -80(%rbp)
	movslq	%edx, %rax
	movq	%rax, %rsi
	movl	$0, %edi
	movslq	%edx, %rax
	movq	%rax, %r10
	movl	$0, %r11d
	movslq	%edx, %rax
	addq	$15, %rax
	shrq	$4, %rax
	salq	$4, %rax
	call	___chkstk_ms
	subq	%rax, %rsp
	leaq	32(%rsp), %rax
	addq	$0, %rax
	movq	%rax, -88(%rbp)
	.loc 1 30 0
	movl	$0, -72(%rbp)
	.loc 1 32 0
	movslq	%edx, %rdx
	movq	-88(%rbp), %rax
	movq	%rdx, %r8
	movl	$0, %edx
	movq	%rax, %rcx
	call	memset
	.loc 1 33 0
	call	__locale_ctype_ptr
	movq	%rax, %rcx
	.loc 1 33 0
	movl	-8(%rbp), %eax
	movslq	%eax, %rdx
	movq	-16(%rbp), %rax
	addq	%rdx, %rax
	movzbl	(%rax), %eax
	.loc 1 33 0
	movzbl	%al, %eax
	addq	$1, %rax
	addq	%rcx, %rax
	movzbl	(%rax), %eax
	.loc 1 33 0
	movzbl	%al, %eax
	andl	$4, %eax
	.loc 1 33 0
	testl	%eax, %eax
	je	.L8
	.loc 1 34 0
	movl	-8(%rbp), %eax
	movslq	%eax, %rdx
	movq	-16(%rbp), %rax
	addq	%rdx, %rax
	movzbl	(%rax), %ecx
	movq	-88(%rbp), %rdx
	movl	-72(%rbp), %eax
	cltq
	movb	%cl, (%rdx,%rax)
	.loc 1 35 0
	addl	$1, -72(%rbp)
	.loc 1 36 0
	addl	$1, -8(%rbp)
	.loc 1 37 0
	addl	$1, -68(%rbp)
.L14:
	.loc 1 39 0
	movl	-8(%rbp), %eax
	cmpl	0(%rbp), %eax
	jge	.L9
	.loc 1 40 0
	call	__locale_ctype_ptr
	movq	%rax, %rcx
	.loc 1 40 0
	movl	-8(%rbp), %eax
	movslq	%eax, %rdx
	movq	-16(%rbp), %rax
	addq	%rdx, %rax
	movzbl	(%rax), %eax
	.loc 1 40 0
	movzbl	%al, %eax
	addq	$1, %rax
	addq	%rcx, %rax
	movzbl	(%rax), %eax
	.loc 1 40 0
	movzbl	%al, %eax
	andl	$4, %eax
	.loc 1 40 0
	testl	%eax, %eax
	jne	.L10
	.loc 1 40 0 discriminator 1
	movl	-8(%rbp), %eax
	movslq	%eax, %rdx
	movq	-16(%rbp), %rax
	addq	%rdx, %rax
	movzbl	(%rax), %eax
	cmpb	$46, %al
	jne	.L11
.L10:
	.loc 1 41 0
	addl	$1, -68(%rbp)
	.loc 1 42 0
	movl	-8(%rbp), %eax
	movslq	%eax, %rdx
	movq	-16(%rbp), %rax
	addq	%rdx, %rax
	movzbl	(%rax), %ecx
	movq	-88(%rbp), %rdx
	movl	-72(%rbp), %eax
	cltq
	movb	%cl, (%rdx,%rax)
	.loc 1 43 0
	addl	$1, -8(%rbp)
	.loc 1 44 0
	addl	$1, -72(%rbp)
	jmp	.L9
.L11:
	.loc 1 46 0
	movl	-8(%rbp), %eax
	movslq	%eax, %rdx
	movq	-16(%rbp), %rax
	addq	%rdx, %rax
	movzbl	(%rax), %eax
	cmpb	$120, %al
	jne	.L9
	.loc 1 47 0
	movq	-88(%rbp), %rax
	movzbl	(%rax), %eax
	cmpb	$48, %al
	jne	.L9
	.loc 1 48 0
	addl	$1, -68(%rbp)
	.loc 1 49 0
	movl	-8(%rbp), %eax
	movslq	%eax, %rdx
	movq	-16(%rbp), %rax
	addq	%rdx, %rax
	movzbl	(%rax), %ecx
	movq	-88(%rbp), %rdx
	movl	-72(%rbp), %eax
	cltq
	movb	%cl, (%rdx,%rax)
	.loc 1 50 0
	addl	$1, -8(%rbp)
	.loc 1 51 0
	addl	$1, -72(%rbp)
	.loc 1 52 0
	jmp	.L12
.L13:
	.loc 1 53 0
	addl	$1, -68(%rbp)
	.loc 1 54 0
	movl	-8(%rbp), %eax
	movslq	%eax, %rdx
	movq	-16(%rbp), %rax
	addq	%rdx, %rax
	movzbl	(%rax), %ecx
	movq	-88(%rbp), %rdx
	movl	-72(%rbp), %eax
	cltq
	movb	%cl, (%rdx,%rax)
	.loc 1 55 0
	addl	$1, -8(%rbp)
	.loc 1 56 0
	addl	$1, -72(%rbp)
.L12:
	.loc 1 52 0
	call	__locale_ctype_ptr
	movq	%rax, %rcx
	.loc 1 52 0
	movl	-8(%rbp), %eax
	movslq	%eax, %rdx
	movq	-16(%rbp), %rax
	addq	%rdx, %rax
	movzbl	(%rax), %eax
	.loc 1 52 0
	movzbl	%al, %eax
	addq	$1, %rax
	addq	%rcx, %rax
	movzbl	(%rax), %eax
	.loc 1 52 0
	movzbl	%al, %eax
	andl	$7, %eax
	.loc 1 52 0
	testl	%eax, %eax
	jne	.L13
.L9:
	.loc 1 61 0
	call	__locale_ctype_ptr
	movq	%rax, %rcx
	.loc 1 61 0
	movl	-8(%rbp), %eax
	movslq	%eax, %rdx
	movq	-16(%rbp), %rax
	addq	%rdx, %rax
	movzbl	(%rax), %eax
	.loc 1 61 0
	movzbl	%al, %eax
	addq	$1, %rax
	addq	%rcx, %rax
	movzbl	(%rax), %eax
	.loc 1 61 0
	movzbl	%al, %eax
	andl	$4, %eax
	.loc 1 61 0
	testl	%eax, %eax
	jne	.L14
	.loc 1 61 0 is_stmt 0 discriminator 1
	movl	-8(%rbp), %eax
	movslq	%eax, %rdx
	movq	-16(%rbp), %rax
	addq	%rdx, %rax
	movzbl	(%rax), %eax
	cmpb	$46, %al
	je	.L14
	.loc 1 61 0 discriminator 2
	movl	-8(%rbp), %eax
	movslq	%eax, %rdx
	movq	-16(%rbp), %rax
	addq	%rdx, %rax
	movzbl	(%rax), %eax
	cmpb	$120, %al
	je	.L14
	.loc 1 62 0 is_stmt 1
	movq	-88(%rbp), %rax
	movzbl	1(%rax), %eax
	cmpb	$120, %al
	jne	.L15
	.loc 1 63 0
	movq	-88(%rbp), %rax
	movq	8(%rbp), %rdx
	movq	%rdx, %r8
	leaq	.LC1(%rip), %rdx
	movq	%rax, %rcx
	call	pushForLex
	jmp	.L16
.L15:
	.loc 1 65 0
	movq	-88(%rbp), %rax
	movq	8(%rbp), %rdx
	movq	%rdx, %r8
	leaq	.LC2(%rip), %rdx
	movq	%rax, %rcx
	call	pushForLex
.L16:
	.loc 1 67 0
	movl	-68(%rbp), %eax
	jmp	.L17
.L8:
	.loc 1 69 0
	movl	$-1, %eax
.L17:
	movq	%rbx, %rsp
	.loc 1 70 0
	leaq	-56(%rbp), %rsp
	popq	%rbx
	.cfi_restore 3
	popq	%rsi
	.cfi_restore 4
	popq	%rdi
	.cfi_restore 5
	popq	%rbp
	.cfi_restore 6
	.cfi_def_cfa 7, -40
	ret
	.cfi_endproc
.LFE10:
	.seh_endproc
	.section .rdata,"dr"
.LC3:
	.ascii "operator\0"
	.text
	.globl	isOperator
	.def	isOperator;	.scl	2;	.type	32;	.endef
	.seh_proc	isOperator
isOperator:
.LFB11:
	.loc 1 75 0
	.cfi_startproc
	pushq	%rbp
	.seh_pushreg	%rbp
	.cfi_def_cfa_offset 16
	.cfi_offset 6, -16
	movq	%rsp, %rbp
	.seh_setframe	%rbp, 0
	.cfi_def_cfa_register 6
	subq	$80, %rsp
	.seh_stackalloc	80
	.seh_endprologue
	movl	%ecx, %eax
	movq	%rdx, 24(%rbp)
	movq	%r8, 32(%rbp)
	movb	%al, 16(%rbp)
	.loc 1 76 0
	movq	$0, -32(%rbp)
	movq	$0, -24(%rbp)
	movl	$0, -16(%rbp)
	movw	$37, -32(%rbp)
	movw	$61, -30(%rbp)
	.loc 1 79 0
	leaq	-42(%rbp), %rax
	movl	$10, %r8d
	movl	$0, %edx
	movq	%rax, %rcx
	call	memset
	.loc 1 81 0
	movq	$0, -8(%rbp)
	jmp	.L20
.L23:
	.loc 1 82 0
	movq	-8(%rbp), %rax
	movzbl	-32(%rbp,%rax,2), %eax
	cmpb	%al, 16(%rbp)
	jne	.L21
	.loc 1 83 0
	movzbl	16(%rbp), %eax
	movb	%al, -42(%rbp)
	.loc 1 84 0
	movq	24(%rbp), %rdx
	leaq	-42(%rbp), %rax
	movq	%rdx, %r8
	leaq	.LC3(%rip), %rdx
	movq	%rax, %rcx
	call	pushForLex
	.loc 1 85 0
	movl	$1, %eax
	jmp	.L24
.L21:
	.loc 1 81 0 discriminator 2
	addq	$1, -8(%rbp)
.L20:
	.loc 1 81 0 is_stmt 0 discriminator 1
	cmpq	$1, -8(%rbp)
	jbe	.L23
	.loc 1 88 0 is_stmt 1
	movl	$0, %eax
.L24:
	.loc 1 89 0 discriminator 1
	addq	$80, %rsp
	popq	%rbp
	.cfi_restore 6
	.cfi_def_cfa 7, 8
	ret
	.cfi_endproc
.LFE11:
	.seh_endproc
	.globl	isAtOperator
	.def	isAtOperator;	.scl	2;	.type	32;	.endef
	.seh_proc	isAtOperator
isAtOperator:
.LFB12:
	.loc 1 94 0
	.cfi_startproc
	pushq	%rbp
	.seh_pushreg	%rbp
	.cfi_def_cfa_offset 16
	.cfi_offset 6, -16
	movq	%rsp, %rbp
	.seh_setframe	%rbp, 0
	.cfi_def_cfa_register 6
	subq	$48, %rsp
	.seh_stackalloc	48
	.seh_endprologue
	movq	%rcx, 16(%rbp)
	movl	%edx, 24(%rbp)
	movl	%r8d, 32(%rbp)
	movq	%r9, 40(%rbp)
	.loc 1 95 0
	movl	$0, -4(%rbp)
	.loc 1 96 0
	movl	24(%rbp), %eax
	movslq	%eax, %rdx
	movq	16(%rbp), %rax
	addq	%rdx, %rax
	movzbl	(%rax), %eax
	cmpb	$64, %al
	jne	.L26
	.loc 1 97 0
	addl	$1, 24(%rbp)
	.loc 1 98 0
	movl	24(%rbp), %eax
	cmpl	32(%rbp), %eax
	jge	.L26
	.loc 1 99 0
	movl	24(%rbp), %eax
	movslq	%eax, %rdx
	movq	16(%rbp), %rax
	addq	%rdx, %rax
	movzbl	(%rax), %eax
	cmpb	$61, %al
	jne	.L27
	.loc 1 100 0
	addl	$1, 24(%rbp)
	.loc 1 101 0
	addl	$1, -4(%rbp)
	.loc 1 102 0
	movl	24(%rbp), %eax
	movslq	%eax, %rdx
	movq	16(%rbp), %rax
	addq	%rdx, %rax
	movzbl	(%rax), %eax
	cmpb	$61, %al
	jne	.L28
	.loc 1 103 0
	addl	$1, -4(%rbp)
	.loc 1 104 0
	movq	48(%rbp), %rax
	movabsq	$8245937404618567791, %rcx
	movq	%rcx, (%rax)
	movl	$1027424300, 8(%rax)
	movb	$0, 12(%rax)
	.loc 1 105 0
	movq	48(%rbp), %rdx
	movq	40(%rbp), %rax
	movq	%rax, %rcx
	call	push_lexerList
	.loc 1 106 0
	movq	48(%rbp), %rax
	movl	$8, %r8d
	movl	$0, %edx
	movq	%rax, %rcx
	call	memset
	.loc 1 107 0
	movl	-4(%rbp), %eax
	jmp	.L29
.L28:
	.loc 1 110 0
	movq	48(%rbp), %rax
	movabsq	$8245937404618567791, %rcx
	movq	%rcx, (%rax)
	movl	$4014124, 8(%rax)
	.loc 1 111 0
	movq	48(%rbp), %rdx
	movq	40(%rbp), %rax
	movq	%rax, %rcx
	call	push_lexerList
	.loc 1 112 0
	movq	48(%rbp), %rax
	movl	$8, %r8d
	movl	$0, %edx
	movq	%rax, %rcx
	call	memset
	.loc 1 113 0
	movl	-4(%rbp), %eax
	jmp	.L29
.L27:
	.loc 1 116 0
	movl	24(%rbp), %eax
	movslq	%eax, %rdx
	movq	16(%rbp), %rax
	addq	%rdx, %rax
	movzbl	(%rax), %eax
	cmpb	$64, %al
	jne	.L30
	.loc 1 117 0
	addl	$1, -4(%rbp)
	.loc 1 118 0
	movq	48(%rbp), %rax
	movabsq	$8245937404618567791, %rcx
	movq	%rcx, (%rax)
	movl	$4210732, 8(%rax)
	.loc 1 119 0
	movq	48(%rbp), %rdx
	movq	40(%rbp), %rax
	movq	%rax, %rcx
	call	push_lexerList
	.loc 1 120 0
	movq	48(%rbp), %rax
	movl	$8, %r8d
	movl	$0, %edx
	movq	%rax, %rcx
	call	memset
	.loc 1 121 0
	movl	-4(%rbp), %eax
	jmp	.L29
.L30:
	.loc 1 123 0
	movl	24(%rbp), %eax
	movslq	%eax, %rdx
	movq	16(%rbp), %rax
	addq	%rdx, %rax
	movzbl	(%rax), %eax
	cmpb	$46, %al
	jne	.L31
	.loc 1 124 0
	addl	$1, -4(%rbp)
	.loc 1 125 0
	movq	48(%rbp), %rax
	movabsq	$8245937404618567791, %rcx
	movq	%rcx, (%rax)
	movl	$3031084, 8(%rax)
	.loc 1 126 0
	movq	48(%rbp), %rdx
	movq	40(%rbp), %rax
	movq	%rax, %rcx
	call	push_lexerList
	.loc 1 127 0
	movq	48(%rbp), %rax
	movl	$8, %r8d
	movl	$0, %edx
	movq	%rax, %rcx
	call	memset
	.loc 1 128 0
	movl	-4(%rbp), %eax
	jmp	.L29
.L31:
	.loc 1 130 0
	movl	24(%rbp), %eax
	movslq	%eax, %rdx
	movq	16(%rbp), %rax
	addq	%rdx, %rax
	movzbl	(%rax), %eax
	cmpb	$47, %al
	jne	.L32
	.loc 1 131 0
	addl	$1, -4(%rbp)
	.loc 1 132 0
	movq	48(%rbp), %rax
	movabsq	$2338615488418770787, %rcx
	movq	%rcx, (%rax)
	movl	$744779365, 8(%rax)
	movw	$12096, 12(%rax)
	movb	$0, 14(%rax)
	.loc 1 133 0
	movq	48(%rbp), %rdx
	movq	40(%rbp), %rax
	movq	%rax, %rcx
	call	push_lexerList
	.loc 1 134 0
	movq	48(%rbp), %rax
	movl	$8, %r8d
	movl	$0, %edx
	movq	%rax, %rcx
	call	memset
	.loc 1 135 0
	movl	-4(%rbp), %eax
	jmp	.L29
.L32:
	.loc 1 137 0
	movl	24(%rbp), %eax
	movslq	%eax, %rdx
	movq	16(%rbp), %rax
	addq	%rdx, %rax
	movzbl	(%rax), %eax
	cmpb	$124, %al
	jne	.L33
	.loc 1 138 0
	addl	$1, -4(%rbp)
	.loc 1 139 0
	movq	48(%rbp), %rax
	movabsq	$7954799962421685346, %rcx
	movq	%rcx, (%rax)
	movl	$2084580452, 8(%rax)
	movb	$0, 12(%rax)
	.loc 1 140 0
	movq	48(%rbp), %rdx
	movq	40(%rbp), %rax
	movq	%rax, %rcx
	call	push_lexerList
	.loc 1 141 0
	movq	48(%rbp), %rax
	movl	$8, %r8d
	movl	$0, %edx
	movq	%rax, %rcx
	call	memset
	.loc 1 142 0
	movl	-4(%rbp), %eax
	jmp	.L29
.L33:
	.loc 1 145 0
	movq	48(%rbp), %rax
	movabsq	$8245937404618567791, %rcx
	movq	%rcx, (%rax)
	movw	$16428, 8(%rax)
	movb	$0, 10(%rax)
	.loc 1 146 0
	movq	48(%rbp), %rdx
	movq	40(%rbp), %rax
	movq	%rax, %rcx
	call	push_lexerList
	.loc 1 147 0
	movq	48(%rbp), %rax
	movl	$8, %r8d
	movl	$0, %edx
	movq	%rax, %rcx
	call	memset
	.loc 1 148 0
	movl	-4(%rbp), %eax
	jmp	.L29
.L26:
	.loc 1 152 0
	movl	$-1, %eax
.L29:
	.loc 1 153 0
	addq	$48, %rsp
	popq	%rbp
	.cfi_restore 6
	.cfi_def_cfa 7, 8
	ret
	.cfi_endproc
.LFE12:
	.seh_endproc
	.section .rdata,"dr"
.LC4:
	.ascii "string\0"
	.text
	.globl	isStringLiteral
	.def	isStringLiteral;	.scl	2;	.type	32;	.endef
	.seh_proc	isStringLiteral
isStringLiteral:
.LFB13:
	.loc 1 158 0
	.cfi_startproc
	pushq	%rbp
	.seh_pushreg	%rbp
	.cfi_def_cfa_offset 16
	.cfi_offset 6, -16
	pushq	%rdi
	.seh_pushreg	%rdi
	.cfi_def_cfa_offset 24
	.cfi_offset 5, -24
	pushq	%rsi
	.seh_pushreg	%rsi
	.cfi_def_cfa_offset 32
	.cfi_offset 4, -32
	pushq	%rbx
	.seh_pushreg	%rbx
	.cfi_def_cfa_offset 40
	.cfi_offset 3, -40
	subq	$72, %rsp
	.seh_stackalloc	72
	.cfi_def_cfa_offset 112
	leaq	128(%rsp), %rbp
	.seh_setframe	%rbp, 128
	.cfi_def_cfa 6, -16
	.seh_endprologue
	movq	%rcx, -16(%rbp)
	movl	%edx, -8(%rbp)
	movl	%r8d, 0(%rbp)
	movq	%r9, 8(%rbp)
	.loc 1 158 0
	movq	%rsp, %rax
	movq	%rax, %rbx
	.loc 1 159 0
	movl	$0, -72(%rbp)
	.loc 1 160 0
	movl	0(%rbp), %edx
	movslq	%edx, %rax
	subq	$1, %rax
	movq	%rax, -80(%rbp)
	movslq	%edx, %rax
	movq	%rax, %rsi
	movl	$0, %edi
	movslq	%edx, %rax
	movq	%rax, %r10
	movl	$0, %r11d
	movslq	%edx, %rax
	addq	$15, %rax
	shrq	$4, %rax
	salq	$4, %rax
	call	___chkstk_ms
	subq	%rax, %rsp
	leaq	32(%rsp), %rax
	addq	$0, %rax
	movq	%rax, -88(%rbp)
	.loc 1 161 0
	movl	$0, -68(%rbp)
	.loc 1 163 0
	movslq	%edx, %rdx
	movq	-88(%rbp), %rax
	movq	%rdx, %r8
	movl	$0, %edx
	movq	%rax, %rcx
	call	memset
	.loc 1 164 0
	movl	-8(%rbp), %eax
	movslq	%eax, %rdx
	movq	-16(%rbp), %rax
	addq	%rdx, %rax
	movzbl	(%rax), %eax
	cmpb	$34, %al
	jne	.L35
	.loc 1 165 0
	addl	$1, -8(%rbp)
.L37:
	.loc 1 167 0
	movl	-8(%rbp), %eax
	cmpl	0(%rbp), %eax
	jge	.L36
	.loc 1 168 0
	addl	$1, -72(%rbp)
	.loc 1 169 0
	movl	-8(%rbp), %eax
	movslq	%eax, %rdx
	movq	-16(%rbp), %rax
	leaq	(%rdx,%rax), %rcx
	movl	-68(%rbp), %eax
	leal	1(%rax), %edx
	movl	%edx, -68(%rbp)
	movzbl	(%rcx), %ecx
	movq	-88(%rbp), %rdx
	cltq
	movb	%cl, (%rdx,%rax)
.L36:
	.loc 1 171 0
	addl	$1, -8(%rbp)
	.loc 1 172 0
	movl	-8(%rbp), %eax
	movslq	%eax, %rdx
	movq	-16(%rbp), %rax
	addq	%rdx, %rax
	movzbl	(%rax), %eax
	cmpb	$34, %al
	jne	.L37
	.loc 1 173 0
	movq	-88(%rbp), %rax
	movq	8(%rbp), %rdx
	movq	%rdx, %r8
	leaq	.LC4(%rip), %rdx
	movq	%rax, %rcx
	call	pushForLex
	.loc 1 174 0
	addl	$1, -72(%rbp)
	.loc 1 175 0
	movl	-72(%rbp), %eax
	jmp	.L38
.L35:
	.loc 1 177 0
	movl	$-1, %eax
.L38:
	movq	%rbx, %rsp
	.loc 1 178 0
	leaq	-56(%rbp), %rsp
	popq	%rbx
	.cfi_restore 3
	popq	%rsi
	.cfi_restore 4
	popq	%rdi
	.cfi_restore 5
	popq	%rbp
	.cfi_restore 6
	.cfi_def_cfa 7, -40
	ret
	.cfi_endproc
.LFE13:
	.seh_endproc
	.globl	isSpecialSymbol
	.def	isSpecialSymbol;	.scl	2;	.type	32;	.endef
	.seh_proc	isSpecialSymbol
isSpecialSymbol:
.LFB14:
	.loc 1 183 0
	.cfi_startproc
	pushq	%rbp
	.seh_pushreg	%rbp
	.cfi_def_cfa_offset 16
	.cfi_offset 6, -16
	pushq	%rdi
	.seh_pushreg	%rdi
	.cfi_def_cfa_offset 24
	.cfi_offset 5, -24
	pushq	%rsi
	.seh_pushreg	%rsi
	.cfi_def_cfa_offset 32
	.cfi_offset 4, -32
	pushq	%rbx
	.seh_pushreg	%rbx
	.cfi_def_cfa_offset 40
	.cfi_offset 3, -40
	subq	$88, %rsp
	.seh_stackalloc	88
	.cfi_def_cfa_offset 128
	leaq	128(%rsp), %rbp
	.seh_setframe	%rbp, 128
	.cfi_def_cfa 6, 0
	.seh_endprologue
	movq	%rcx, 0(%rbp)
	movl	%edx, 8(%rbp)
	movl	%r8d, 16(%rbp)
	movq	%r9, 24(%rbp)
	.loc 1 183 0
	movq	%rsp, %rax
	movq	%rax, %rbx
	.loc 1 184 0
	movl	$0, -52(%rbp)
	.loc 1 185 0
	movl	16(%rbp), %edx
	movslq	%edx, %rax
	subq	$1, %rax
	movq	%rax, -64(%rbp)
	movslq	%edx, %rax
	movq	%rax, %rsi
	movl	$0, %edi
	movslq	%edx, %rax
	movq	%rax, %r10
	movl	$0, %r11d
	movslq	%edx, %rax
	addq	$15, %rax
	shrq	$4, %rax
	salq	$4, %rax
	call	___chkstk_ms
	subq	%rax, %rsp
	leaq	32(%rsp), %rax
	addq	$0, %rax
	movq	%rax, -72(%rbp)
	.loc 1 186 0
	movl	$0, -76(%rbp)
	.loc 1 187 0
	movl	$1, -80(%rbp)
	.loc 1 188 0
	movl	$2, -84(%rbp)
	.loc 1 189 0
	movl	$10, -88(%rbp)
	.loc 1 190 0
	movslq	%edx, %rdx
	movq	-72(%rbp), %rax
	movq	%rdx, %r8
	movl	$0, %edx
	movq	%rax, %rcx
	call	memset
	.loc 1 192 0
	movl	8(%rbp), %eax
	movslq	%eax, %rdx
	movq	0(%rbp), %rax
	addq	%rdx, %rax
	movzbl	(%rax), %eax
	cmpb	$35, %al
	jne	.L41
	.loc 1 193 0
	movq	40(%rbp), %rax
	movabsq	$2336349411965497459, %rsi
	movabsq	$2534519915951257971, %rdi
	movq	%rsi, (%rax)
	movq	%rdi, 8(%rax)
	movb	$0, 16(%rax)
	.loc 1 194 0
	movq	40(%rbp), %rdx
	movq	32(%rbp), %rax
	movq	%rax, %rcx
	call	push_lexerList
	.loc 1 195 0
	movq	40(%rbp), %rax
	movl	$8, %r8d
	movl	$0, %edx
	movq	%rax, %rcx
	call	memset
	.loc 1 196 0
	movq	24(%rbp), %rax
	movl	-88(%rbp), %edx
	movl	%edx, (%rax)
	.loc 1 197 0
	movl	$1, %eax
	jmp	.L42
.L41:
	.loc 1 200 0
	movl	8(%rbp), %eax
	movslq	%eax, %rdx
	movq	0(%rbp), %rax
	addq	%rdx, %rax
	movzbl	(%rax), %eax
	cmpb	$92, %al
	jne	.L43
	.loc 1 201 0
	movq	40(%rbp), %rax
	movabsq	$8295751951492343154, %rsi
	movabsq	$25944542094191993, %rdi
	movq	%rsi, (%rax)
	movq	%rdi, 8(%rax)
	.loc 1 202 0
	movq	40(%rbp), %rdx
	movq	32(%rbp), %rax
	movq	%rax, %rcx
	call	push_lexerList
	.loc 1 203 0
	movq	40(%rbp), %rax
	movl	$8, %r8d
	movl	$0, %edx
	movq	%rax, %rcx
	call	memset
	.loc 1 204 0
	movq	24(%rbp), %rax
	movl	-88(%rbp), %edx
	movl	%edx, (%rax)
	.loc 1 205 0
	movl	$1, %eax
	jmp	.L42
.L43:
	.loc 1 208 0
	movl	8(%rbp), %eax
	movslq	%eax, %rdx
	movq	0(%rbp), %rax
	addq	%rdx, %rax
	movzbl	(%rax), %eax
	cmpb	$91, %al
	jne	.L44
	.loc 1 209 0
	movq	40(%rbp), %rax
	movabsq	$8391086236419388001, %rdi
	movq	%rdi, (%rax)
	movl	$745828961, 8(%rax)
	movw	$91, 12(%rax)
	.loc 1 210 0
	movq	40(%rbp), %rdx
	movq	32(%rbp), %rax
	movq	%rax, %rcx
	call	push_lexerList
	.loc 1 211 0
	movq	40(%rbp), %rax
	movl	$8, %r8d
	movl	$0, %edx
	movq	%rax, %rcx
	call	memset
	.loc 1 212 0
	movq	24(%rbp), %rax
	movl	-84(%rbp), %edx
	movl	%edx, (%rax)
	.loc 1 213 0
	movl	$1, %eax
	jmp	.L42
.L44:
	.loc 1 216 0
	movl	8(%rbp), %eax
	movslq	%eax, %rdx
	movq	0(%rbp), %rax
	addq	%rdx, %rax
	movzbl	(%rax), %eax
	cmpb	$93, %al
	jne	.L45
	.loc 1 217 0
	movq	40(%rbp), %rax
	movabsq	$7954800022517871201, %rsi
	movq	%rsi, (%rax)
	movl	$6106212, 8(%rax)
	.loc 1 218 0
	movq	40(%rbp), %rdx
	movq	32(%rbp), %rax
	movq	%rax, %rcx
	call	push_lexerList
	.loc 1 219 0
	movq	40(%rbp), %rax
	movl	$8, %r8d
	movl	$0, %edx
	movq	%rax, %rcx
	call	memset
	.loc 1 220 0
	movq	24(%rbp), %rax
	movl	-84(%rbp), %edx
	movl	%edx, (%rax)
	.loc 1 221 0
	movl	$1, %eax
	jmp	.L42
.L45:
	.loc 1 224 0
	movl	8(%rbp), %eax
	movslq	%eax, %rdx
	movq	0(%rbp), %rax
	addq	%rdx, %rax
	movzbl	(%rax), %eax
	cmpb	$33, %al
	jne	.L46
	.loc 1 225 0
	movq	40(%rbp), %rax
	movabsq	$2336349411965497459, %rsi
	movabsq	$2390404727875402099, %rdi
	movq	%rsi, (%rax)
	movq	%rdi, 8(%rax)
	movb	$0, 16(%rax)
	.loc 1 226 0
	movq	40(%rbp), %rdx
	movq	32(%rbp), %rax
	movq	%rax, %rcx
	call	push_lexerList
	.loc 1 227 0
	movq	40(%rbp), %rax
	movl	$8, %r8d
	movl	$0, %edx
	movq	%rax, %rcx
	call	memset
	.loc 1 228 0
	movq	24(%rbp), %rax
	movl	-84(%rbp), %edx
	movl	%edx, (%rax)
	.loc 1 229 0
	movl	$1, %eax
	jmp	.L42
.L46:
	.loc 1 232 0
	movl	8(%rbp), %eax
	movslq	%eax, %rdx
	movq	0(%rbp), %rax
	addq	%rdx, %rax
	movzbl	(%rax), %eax
	cmpb	$38, %al
	jne	.L47
	.loc 1 233 0
	movq	40(%rbp), %rax
	movabsq	$7164775599194924402, %rsi
	movabsq	$7813572100839645285, %rdi
	movq	%rsi, (%rax)
	movq	%rdi, 8(%rax)
	movw	$9772, 16(%rax)
	movb	$0, 18(%rax)
	.loc 1 234 0
	movq	40(%rbp), %rdx
	movq	32(%rbp), %rax
	movq	%rax, %rcx
	call	push_lexerList
	.loc 1 235 0
	movq	40(%rbp), %rax
	movl	$8, %r8d
	movl	$0, %edx
	movq	%rax, %rcx
	call	memset
	.loc 1 236 0
	movq	24(%rbp), %rax
	movl	-84(%rbp), %edx
	movl	%edx, (%rax)
	.loc 1 237 0
	movl	$1, %eax
	jmp	.L42
.L47:
	.loc 1 240 0
	movl	8(%rbp), %eax
	movslq	%eax, %rdx
	movq	0(%rbp), %rax
	addq	%rdx, %rax
	movzbl	(%rax), %eax
	cmpb	$44, %al
	jne	.L48
	.loc 1 241 0
	movq	40(%rbp), %rax
	movabsq	$12433695934607203, %rdi
	movq	%rdi, (%rax)
	.loc 1 242 0
	movq	40(%rbp), %rdx
	movq	32(%rbp), %rax
	movq	%rax, %rcx
	call	push_lexerList
	.loc 1 243 0
	movq	40(%rbp), %rax
	movl	$8, %r8d
	movl	$0, %edx
	movq	%rax, %rcx
	call	memset
	.loc 1 244 0
	movq	24(%rbp), %rax
	movl	-84(%rbp), %edx
	movl	%edx, (%rax)
	.loc 1 245 0
	movl	$1, %eax
	jmp	.L42
.L48:
	.loc 1 248 0
	movl	8(%rbp), %eax
	movslq	%eax, %rdx
	movq	0(%rbp), %rax
	addq	%rdx, %rax
	movzbl	(%rax), %eax
	cmpb	$94, %al
	jne	.L49
	.loc 1 249 0
	movq	40(%rbp), %rax
	movabsq	$2338042707301724016, %rsi
	movabsq	$6785917964189006195, %rdi
	movq	%rsi, (%rax)
	movq	%rdi, 8(%rax)
	movb	$0, 16(%rax)
	.loc 1 250 0
	movq	40(%rbp), %rdx
	movq	32(%rbp), %rax
	movq	%rax, %rcx
	call	push_lexerList
	.loc 1 251 0
	movq	40(%rbp), %rax
	movl	$8, %r8d
	movl	$0, %edx
	movq	%rax, %rcx
	call	memset
	.loc 1 252 0
	movq	24(%rbp), %rax
	movl	-84(%rbp), %edx
	movl	%edx, (%rax)
	.loc 1 253 0
	movl	$1, %eax
	jmp	.L42
.L49:
	.loc 1 256 0
	movl	8(%rbp), %eax
	movslq	%eax, %rdx
	movq	0(%rbp), %rax
	addq	%rdx, %rax
	movzbl	(%rax), %eax
	cmpb	$47, %al
	jne	.L50
	.loc 1 257 0
	addl	$1, 8(%rbp)
	.loc 1 258 0
	movl	8(%rbp), %eax
	cmpl	16(%rbp), %eax
	jge	.L50
	.loc 1 259 0
	movl	8(%rbp), %eax
	movslq	%eax, %rdx
	movq	0(%rbp), %rax
	addq	%rdx, %rax
	movzbl	(%rax), %eax
	cmpb	$64, %al
	jne	.L51
	.loc 1 260 0
	addl	$1, 8(%rbp)
	.loc 1 261 0
	addl	$1, -52(%rbp)
	.loc 1 262 0
	movq	40(%rbp), %rax
	movabsq	$2338615488418770787, %rsi
	movabsq	$4624964220979606643, %rdi
	movq	%rsi, (%rax)
	movq	%rdi, 8(%rax)
	movb	$0, 16(%rax)
	.loc 1 263 0
	movq	40(%rbp), %rdx
	movq	32(%rbp), %rax
	movq	%rax, %rcx
	call	push_lexerList
	.loc 1 264 0
	movq	40(%rbp), %rax
	movl	$8, %r8d
	movl	$0, %edx
	movq	%rax, %rcx
	call	memset
	.loc 1 265 0
	movq	24(%rbp), %rax
	movl	-84(%rbp), %edx
	movl	%edx, (%rax)
	.loc 1 266 0
	movl	-52(%rbp), %eax
	jmp	.L42
.L51:
	.loc 1 268 0
	movl	8(%rbp), %eax
	movslq	%eax, %rdx
	movq	0(%rbp), %rax
	addq	%rdx, %rax
	movzbl	(%rax), %eax
	cmpb	$61, %al
	jne	.L52
	.loc 1 269 0
	addl	$1, 8(%rbp)
	.loc 1 270 0
	addl	$1, -52(%rbp)
	.loc 1 271 0
	movq	40(%rbp), %rax
	movabsq	$8245937404618567791, %rsi
	movq	%rsi, (%rax)
	movl	$4009772, 8(%rax)
	.loc 1 272 0
	movq	40(%rbp), %rdx
	movq	32(%rbp), %rax
	movq	%rax, %rcx
	call	push_lexerList
	.loc 1 273 0
	movq	40(%rbp), %rax
	movl	$8, %r8d
	movl	$0, %edx
	movq	%rax, %rcx
	call	memset
	.loc 1 274 0
	movq	24(%rbp), %rax
	movl	-80(%rbp), %edx
	movl	%edx, (%rax)
	.loc 1 275 0
	movl	-52(%rbp), %eax
	jmp	.L42
.L52:
	.loc 1 278 0
	movq	40(%rbp), %rax
	movabsq	$8245937404618567791, %rdi
	movq	%rdi, (%rax)
	movw	$12076, 8(%rax)
	movb	$0, 10(%rax)
	.loc 1 279 0
	movq	40(%rbp), %rdx
	movq	32(%rbp), %rax
	movq	%rax, %rcx
	call	push_lexerList
	.loc 1 280 0
	movq	40(%rbp), %rax
	movl	$8, %r8d
	movl	$0, %edx
	movq	%rax, %rcx
	call	memset
	.loc 1 281 0
	movq	24(%rbp), %rax
	movl	-80(%rbp), %edx
	movl	%edx, (%rax)
	.loc 1 282 0
	movl	-52(%rbp), %eax
	jmp	.L42
.L50:
	.loc 1 287 0
	movl	8(%rbp), %eax
	movslq	%eax, %rdx
	movq	0(%rbp), %rax
	addq	%rdx, %rax
	movzbl	(%rax), %eax
	cmpb	$124, %al
	jne	.L53
	.loc 1 288 0
	addl	$1, 8(%rbp)
	.loc 1 289 0
	addl	$1, -52(%rbp)
	.loc 1 290 0
	movl	8(%rbp), %eax
	cmpl	16(%rbp), %eax
	jge	.L53
	.loc 1 291 0
	movl	8(%rbp), %eax
	movslq	%eax, %rdx
	movq	0(%rbp), %rax
	addq	%rdx, %rax
	movzbl	(%rax), %eax
	cmpb	$64, %al
	jne	.L54
	.loc 1 292 0
	addl	$1, 8(%rbp)
	.loc 1 293 0
	addl	$1, -52(%rbp)
	.loc 1 294 0
	movq	40(%rbp), %rax
	movabsq	$8391086176323202146, %rsi
	movq	%rsi, (%rax)
	movl	$745828961, 8(%rax)
	movw	$16508, 12(%rax)
	movb	$0, 14(%rax)
	.loc 1 295 0
	movq	40(%rbp), %rdx
	movq	32(%rbp), %rax
	movq	%rax, %rcx
	call	push_lexerList
	.loc 1 296 0
	movq	40(%rbp), %rax
	movl	$8, %r8d
	movl	$0, %edx
	movq	%rax, %rcx
	call	memset
	.loc 1 297 0
	movq	24(%rbp), %rax
	movl	-88(%rbp), %edx
	movl	%edx, (%rax)
	.loc 1 298 0
	movl	-52(%rbp), %eax
	jmp	.L42
.L54:
	.loc 1 301 0
	movq	40(%rbp), %rax
	movabsq	$7307218412905849200, %rdi
	movq	%rdi, (%rax)
	movl	$745761139, 8(%rax)
	movw	$124, 12(%rax)
	.loc 1 302 0
	movq	40(%rbp), %rdx
	movq	32(%rbp), %rax
	movq	%rax, %rcx
	call	push_lexerList
	.loc 1 303 0
	movq	40(%rbp), %rax
	movl	$8, %r8d
	movl	$0, %edx
	movq	%rax, %rcx
	call	memset
	.loc 1 304 0
	movq	24(%rbp), %rax
	movl	-84(%rbp), %edx
	movl	%edx, (%rax)
	.loc 1 305 0
	movl	$1, %eax
	jmp	.L42
.L53:
	.loc 1 310 0
	movl	8(%rbp), %eax
	movslq	%eax, %rdx
	movq	0(%rbp), %rax
	addq	%rdx, %rax
	movzbl	(%rax), %eax
	cmpb	$43, %al
	jne	.L55
	.loc 1 311 0
	addl	$1, 8(%rbp)
	.loc 1 312 0
	movl	8(%rbp), %eax
	cmpl	16(%rbp), %eax
	jge	.L55
	.loc 1 313 0
	movl	8(%rbp), %eax
	movslq	%eax, %rdx
	movq	0(%rbp), %rax
	addq	%rdx, %rax
	movzbl	(%rax), %eax
	cmpb	$43, %al
	jne	.L56
	.loc 1 314 0
	addl	$1, 8(%rbp)
	.loc 1 315 0
	addl	$1, -52(%rbp)
	.loc 1 316 0
	movq	40(%rbp), %rax
	movabsq	$8245937404618567791, %rsi
	movq	%rsi, (%rax)
	movl	$2829100, 8(%rax)
	.loc 1 317 0
	movq	40(%rbp), %rdx
	movq	32(%rbp), %rax
	movq	%rax, %rcx
	call	push_lexerList
	.loc 1 318 0
	movq	40(%rbp), %rax
	movl	$8, %r8d
	movl	$0, %edx
	movq	%rax, %rcx
	call	memset
	.loc 1 319 0
	movq	24(%rbp), %rax
	movl	-80(%rbp), %edx
	movl	%edx, (%rax)
	.loc 1 320 0
	movl	-52(%rbp), %eax
	jmp	.L42
.L56:
	.loc 1 322 0
	movl	8(%rbp), %eax
	movslq	%eax, %rdx
	movq	0(%rbp), %rax
	addq	%rdx, %rax
	movzbl	(%rax), %eax
	cmpb	$61, %al
	jne	.L57
	.loc 1 323 0
	addl	$1, 8(%rbp)
	.loc 1 324 0
	addl	$1, -52(%rbp)
	.loc 1 325 0
	movq	40(%rbp), %rax
	movabsq	$8245937404618567791, %rdi
	movq	%rdi, (%rax)
	movl	$4008748, 8(%rax)
	.loc 1 326 0
	movq	40(%rbp), %rdx
	movq	32(%rbp), %rax
	movq	%rax, %rcx
	call	push_lexerList
	.loc 1 327 0
	movq	40(%rbp), %rax
	movl	$8, %r8d
	movl	$0, %edx
	movq	%rax, %rcx
	call	memset
	.loc 1 328 0
	movq	24(%rbp), %rax
	movl	-80(%rbp), %edx
	movl	%edx, (%rax)
	.loc 1 329 0
	movl	-52(%rbp), %eax
	jmp	.L42
.L57:
	.loc 1 332 0
	movq	40(%rbp), %rax
	movabsq	$8245937404618567791, %rsi
	movq	%rsi, (%rax)
	movw	$11052, 8(%rax)
	movb	$0, 10(%rax)
	.loc 1 333 0
	movq	40(%rbp), %rdx
	movq	32(%rbp), %rax
	movq	%rax, %rcx
	call	push_lexerList
	.loc 1 334 0
	movq	40(%rbp), %rax
	movl	$8, %r8d
	movl	$0, %edx
	movq	%rax, %rcx
	call	memset
	.loc 1 335 0
	movq	24(%rbp), %rax
	movl	-80(%rbp), %edx
	movl	%edx, (%rax)
	.loc 1 336 0
	movl	-52(%rbp), %eax
	jmp	.L42
.L55:
	.loc 1 341 0
	movl	8(%rbp), %eax
	movslq	%eax, %rdx
	movq	0(%rbp), %rax
	addq	%rdx, %rax
	movzbl	(%rax), %eax
	cmpb	$45, %al
	jne	.L58
	.loc 1 342 0
	addl	$1, 8(%rbp)
	.loc 1 343 0
	movl	8(%rbp), %eax
	cmpl	16(%rbp), %eax
	jge	.L58
	.loc 1 344 0
	movl	8(%rbp), %eax
	movslq	%eax, %rdx
	movq	0(%rbp), %rax
	addq	%rdx, %rax
	movzbl	(%rax), %eax
	cmpb	$45, %al
	jne	.L59
	.loc 1 345 0
	addl	$1, 8(%rbp)
	.loc 1 346 0
	addl	$1, -52(%rbp)
	.loc 1 347 0
	movl	8(%rbp), %eax
	cmpl	16(%rbp), %eax
	jge	.L58
	.loc 1 348 0
	movl	8(%rbp), %eax
	movslq	%eax, %rdx
	movq	0(%rbp), %rax
	addq	%rdx, %rax
	movzbl	(%rax), %eax
	cmpb	$45, %al
	jne	.L60
	.loc 1 349 0
	addl	$1, 8(%rbp)
	.loc 1 350 0
	addl	$1, -52(%rbp)
	.loc 1 351 0
	movq	40(%rbp), %rax
	movabsq	$8245937404618567791, %rdi
	movq	%rdi, (%rax)
	movl	$757935404, 8(%rax)
	movb	$0, 12(%rax)
	.loc 1 352 0
	movq	40(%rbp), %rdx
	movq	32(%rbp), %rax
	movq	%rax, %rcx
	call	push_lexerList
	.loc 1 353 0
	movq	40(%rbp), %rax
	movl	$8, %r8d
	movl	$0, %edx
	movq	%rax, %rcx
	call	memset
	.loc 1 354 0
	movq	24(%rbp), %rax
	movl	-80(%rbp), %edx
	movl	%edx, (%rax)
	.loc 1 355 0
	movl	-52(%rbp), %eax
	jmp	.L42
.L60:
	.loc 1 358 0
	movq	40(%rbp), %rax
	movabsq	$8245937404618567791, %rsi
	movq	%rsi, (%rax)
	movl	$2960684, 8(%rax)
	.loc 1 359 0
	movq	40(%rbp), %rdx
	movq	32(%rbp), %rax
	movq	%rax, %rcx
	call	push_lexerList
	.loc 1 360 0
	movq	40(%rbp), %rax
	movl	$8, %r8d
	movl	$0, %edx
	movq	%rax, %rcx
	call	memset
	.loc 1 361 0
	movq	24(%rbp), %rax
	movl	-80(%rbp), %edx
	movl	%edx, (%rax)
	.loc 1 362 0
	movl	-52(%rbp), %eax
	jmp	.L42
.L59:
	.loc 1 366 0
	movl	8(%rbp), %eax
	movslq	%eax, %rdx
	movq	0(%rbp), %rax
	addq	%rdx, %rax
	movzbl	(%rax), %eax
	cmpb	$61, %al
	jne	.L61
	.loc 1 367 0
	addl	$1, 8(%rbp)
	.loc 1 368 0
	addl	$1, -52(%rbp)
	.loc 1 369 0
	movq	40(%rbp), %rax
	movabsq	$8245937404618567791, %rdi
	movq	%rdi, (%rax)
	movl	$4009260, 8(%rax)
	.loc 1 370 0
	movq	40(%rbp), %rdx
	movq	32(%rbp), %rax
	movq	%rax, %rcx
	call	push_lexerList
	.loc 1 371 0
	movq	40(%rbp), %rax
	movl	$8, %r8d
	movl	$0, %edx
	movq	%rax, %rcx
	call	memset
	.loc 1 372 0
	movq	24(%rbp), %rax
	movl	-80(%rbp), %edx
	movl	%edx, (%rax)
	.loc 1 373 0
	movl	-52(%rbp), %eax
	jmp	.L42
.L61:
	.loc 1 375 0
	movl	8(%rbp), %eax
	movslq	%eax, %rdx
	movq	0(%rbp), %rax
	addq	%rdx, %rax
	movzbl	(%rax), %eax
	cmpb	$62, %al
	jne	.L62
	.loc 1 376 0
	addl	$1, 8(%rbp)
	.loc 1 377 0
	addl	$1, -52(%rbp)
	.loc 1 378 0
	movq	40(%rbp), %rax
	movabsq	$8245937404618567791, %rsi
	movq	%rsi, (%rax)
	movl	$4074796, 8(%rax)
	.loc 1 379 0
	movq	40(%rbp), %rdx
	movq	32(%rbp), %rax
	movq	%rax, %rcx
	call	push_lexerList
	.loc 1 380 0
	movq	40(%rbp), %rax
	movl	$8, %r8d
	movl	$0, %edx
	movq	%rax, %rcx
	call	memset
	.loc 1 381 0
	movq	24(%rbp), %rax
	movl	-80(%rbp), %edx
	movl	%edx, (%rax)
	.loc 1 382 0
	movl	-52(%rbp), %eax
	jmp	.L42
.L62:
	.loc 1 385 0
	movq	40(%rbp), %rax
	movabsq	$8245937404618567791, %rdi
	movq	%rdi, (%rax)
	movw	$11564, 8(%rax)
	movb	$0, 10(%rax)
	.loc 1 386 0
	movq	40(%rbp), %rdx
	movq	32(%rbp), %rax
	movq	%rax, %rcx
	call	push_lexerList
	.loc 1 387 0
	movq	40(%rbp), %rax
	movl	$8, %r8d
	movl	$0, %edx
	movq	%rax, %rcx
	call	memset
	.loc 1 388 0
	movq	24(%rbp), %rax
	movl	-80(%rbp), %edx
	movl	%edx, (%rax)
	.loc 1 389 0
	movl	-52(%rbp), %eax
	jmp	.L42
.L58:
	.loc 1 394 0
	movl	8(%rbp), %eax
	movslq	%eax, %rdx
	movq	0(%rbp), %rax
	addq	%rdx, %rax
	movzbl	(%rax), %eax
	cmpb	$42, %al
	jne	.L63
	.loc 1 395 0
	addl	$1, 8(%rbp)
	.loc 1 396 0
	movl	8(%rbp), %eax
	movslq	%eax, %rdx
	movq	0(%rbp), %rax
	addq	%rdx, %rax
	movzbl	(%rax), %eax
	cmpb	$61, %al
	jne	.L64
	.loc 1 397 0
	addl	$1, 8(%rbp)
	.loc 1 398 0
	addl	$1, -52(%rbp)
	.loc 1 399 0
	movq	40(%rbp), %rax
	movabsq	$8245937404618567791, %rsi
	movq	%rsi, (%rax)
	movl	$4008492, 8(%rax)
	.loc 1 400 0
	movq	40(%rbp), %rdx
	movq	32(%rbp), %rax
	movq	%rax, %rcx
	call	push_lexerList
	.loc 1 401 0
	movq	40(%rbp), %rax
	movl	$8, %r8d
	movl	$0, %edx
	movq	%rax, %rcx
	call	memset
	.loc 1 402 0
	movq	24(%rbp), %rax
	movl	-80(%rbp), %edx
	movl	%edx, (%rax)
	.loc 1 403 0
	movl	-52(%rbp), %eax
	jmp	.L42
.L64:
	.loc 1 406 0
	movq	40(%rbp), %rax
	movabsq	$8245937404618567791, %rdi
	movq	%rdi, (%rax)
	movw	$10796, 8(%rax)
	movb	$0, 10(%rax)
	.loc 1 407 0
	movq	40(%rbp), %rdx
	movq	32(%rbp), %rax
	movq	%rax, %rcx
	call	push_lexerList
	.loc 1 408 0
	movq	40(%rbp), %rax
	movl	$8, %r8d
	movl	$0, %edx
	movq	%rax, %rcx
	call	memset
	.loc 1 409 0
	movq	24(%rbp), %rax
	movl	-80(%rbp), %edx
	movl	%edx, (%rax)
	.loc 1 410 0
	movl	-52(%rbp), %eax
	jmp	.L42
.L63:
	.loc 1 414 0
	movl	8(%rbp), %eax
	movslq	%eax, %rdx
	movq	0(%rbp), %rax
	addq	%rdx, %rax
	movzbl	(%rax), %eax
	cmpb	$126, %al
	jne	.L65
	.loc 1 415 0
	addl	$1, 8(%rbp)
	.loc 1 416 0
	movl	8(%rbp), %eax
	movslq	%eax, %rdx
	movq	0(%rbp), %rax
	addq	%rdx, %rax
	movzbl	(%rax), %eax
	cmpb	$61, %al
	jne	.L66
	.loc 1 417 0
	addl	$1, 8(%rbp)
	.loc 1 418 0
	addl	$1, -52(%rbp)
	.loc 1 419 0
	movq	40(%rbp), %rax
	movabsq	$8245937404618567791, %rsi
	movq	%rsi, (%rax)
	movl	$4029996, 8(%rax)
	.loc 1 420 0
	movq	40(%rbp), %rdx
	movq	32(%rbp), %rax
	movq	%rax, %rcx
	call	push_lexerList
	.loc 1 421 0
	movq	40(%rbp), %rax
	movl	$8, %r8d
	movl	$0, %edx
	movq	%rax, %rcx
	call	memset
	.loc 1 422 0
	movq	24(%rbp), %rax
	movl	-80(%rbp), %edx
	movl	%edx, (%rax)
	.loc 1 423 0
	movl	-52(%rbp), %eax
	jmp	.L42
.L66:
	.loc 1 426 0
	movq	40(%rbp), %rax
	movabsq	$8245937404618567791, %rdi
	movq	%rdi, (%rax)
	movw	$32300, 8(%rax)
	movb	$0, 10(%rax)
	.loc 1 427 0
	movq	40(%rbp), %rdx
	movq	32(%rbp), %rax
	movq	%rax, %rcx
	call	push_lexerList
	.loc 1 428 0
	movq	40(%rbp), %rax
	movl	$8, %r8d
	movl	$0, %edx
	movq	%rax, %rcx
	call	memset
	.loc 1 429 0
	movq	24(%rbp), %rax
	movl	-80(%rbp), %edx
	movl	%edx, (%rax)
	.loc 1 430 0
	movl	-52(%rbp), %eax
	jmp	.L42
.L65:
	.loc 1 434 0
	movl	8(%rbp), %eax
	movslq	%eax, %rdx
	movq	0(%rbp), %rax
	addq	%rdx, %rax
	movzbl	(%rax), %eax
	cmpb	$60, %al
	jne	.L67
	.loc 1 435 0
	addl	$1, 8(%rbp)
	.loc 1 436 0
	movl	8(%rbp), %eax
	movslq	%eax, %rdx
	movq	0(%rbp), %rax
	addq	%rdx, %rax
	movzbl	(%rax), %eax
	cmpb	$61, %al
	jne	.L68
	.loc 1 437 0
	addl	$1, 8(%rbp)
	.loc 1 438 0
	addl	$1, -52(%rbp)
	.loc 1 439 0
	movq	40(%rbp), %rax
	movabsq	$8245937404618567791, %rsi
	movq	%rsi, (%rax)
	movl	$4013100, 8(%rax)
	.loc 1 440 0
	movq	40(%rbp), %rdx
	movq	32(%rbp), %rax
	movq	%rax, %rcx
	call	push_lexerList
	.loc 1 441 0
	movq	40(%rbp), %rax
	movl	$8, %r8d
	movl	$0, %edx
	movq	%rax, %rcx
	call	memset
	.loc 1 442 0
	movq	24(%rbp), %rax
	movl	-80(%rbp), %edx
	movl	%edx, (%rax)
	.loc 1 443 0
	movl	-52(%rbp), %eax
	jmp	.L42
.L68:
	.loc 1 446 0
	movq	40(%rbp), %rax
	movabsq	$8245937404618567791, %rdi
	movq	%rdi, (%rax)
	movw	$15404, 8(%rax)
	movb	$0, 10(%rax)
	.loc 1 447 0
	movq	40(%rbp), %rdx
	movq	32(%rbp), %rax
	movq	%rax, %rcx
	call	push_lexerList
	.loc 1 448 0
	movq	40(%rbp), %rax
	movl	$8, %r8d
	movl	$0, %edx
	movq	%rax, %rcx
	call	memset
	.loc 1 449 0
	movq	24(%rbp), %rax
	movl	-80(%rbp), %edx
	movl	%edx, (%rax)
	.loc 1 450 0
	movl	-52(%rbp), %eax
	jmp	.L42
.L67:
	.loc 1 454 0
	movl	8(%rbp), %eax
	movslq	%eax, %rdx
	movq	0(%rbp), %rax
	addq	%rdx, %rax
	movzbl	(%rax), %eax
	cmpb	$62, %al
	jne	.L69
	.loc 1 455 0
	addl	$1, 8(%rbp)
	.loc 1 456 0
	movl	8(%rbp), %eax
	movslq	%eax, %rdx
	movq	0(%rbp), %rax
	addq	%rdx, %rax
	movzbl	(%rax), %eax
	cmpb	$61, %al
	jne	.L70
	.loc 1 457 0
	addl	$1, 8(%rbp)
	.loc 1 458 0
	addl	$1, -52(%rbp)
	.loc 1 459 0
	movq	40(%rbp), %rax
	movabsq	$8245937404618567791, %rsi
	movq	%rsi, (%rax)
	movl	$4013612, 8(%rax)
	.loc 1 460 0
	movq	40(%rbp), %rdx
	movq	32(%rbp), %rax
	movq	%rax, %rcx
	call	push_lexerList
	.loc 1 461 0
	movq	40(%rbp), %rax
	movl	$8, %r8d
	movl	$0, %edx
	movq	%rax, %rcx
	call	memset
	.loc 1 462 0
	movq	24(%rbp), %rax
	movl	-80(%rbp), %edx
	movl	%edx, (%rax)
	.loc 1 463 0
	movl	-52(%rbp), %eax
	jmp	.L42
.L70:
	.loc 1 466 0
	movq	40(%rbp), %rax
	movabsq	$8245937404618567791, %rdi
	movq	%rdi, (%rax)
	movw	$15916, 8(%rax)
	movb	$0, 10(%rax)
	.loc 1 467 0
	movq	40(%rbp), %rdx
	movq	32(%rbp), %rax
	movq	%rax, %rcx
	call	push_lexerList
	.loc 1 468 0
	movq	40(%rbp), %rax
	movl	$8, %r8d
	movl	$0, %edx
	movq	%rax, %rcx
	call	memset
	.loc 1 469 0
	movq	24(%rbp), %rax
	movl	-80(%rbp), %edx
	movl	%edx, (%rax)
	.loc 1 470 0
	movl	-52(%rbp), %eax
	jmp	.L42
.L69:
	.loc 1 474 0
	movl	8(%rbp), %eax
	movslq	%eax, %rdx
	movq	0(%rbp), %rax
	addq	%rdx, %rax
	movzbl	(%rax), %eax
	cmpb	$46, %al
	jne	.L71
	.loc 1 475 0
	addl	$1, 8(%rbp)
	.loc 1 476 0
	movl	8(%rbp), %eax
	movslq	%eax, %rdx
	movq	0(%rbp), %rax
	addq	%rdx, %rax
	movzbl	(%rax), %eax
	cmpb	$46, %al
	jne	.L72
	.loc 1 477 0
	addl	$1, 8(%rbp)
	.loc 1 478 0
	addl	$1, -52(%rbp)
	.loc 1 479 0
	movq	40(%rbp), %rax
	movabsq	$8245937404618567791, %rsi
	movq	%rsi, (%rax)
	movl	$3026476, 8(%rax)
	.loc 1 480 0
	movq	40(%rbp), %rdx
	movq	32(%rbp), %rax
	movq	%rax, %rcx
	call	push_lexerList
	.loc 1 481 0
	movq	40(%rbp), %rax
	movl	$8, %r8d
	movl	$0, %edx
	movq	%rax, %rcx
	call	memset
	.loc 1 482 0
	movq	24(%rbp), %rax
	movl	-80(%rbp), %edx
	movl	%edx, (%rax)
	.loc 1 483 0
	movl	-52(%rbp), %eax
	jmp	.L42
.L72:
	.loc 1 486 0
	movq	40(%rbp), %rax
	movabsq	$8245937404618567791, %rdi
	movq	%rdi, (%rax)
	movw	$11820, 8(%rax)
	movb	$0, 10(%rax)
	.loc 1 487 0
	movq	40(%rbp), %rdx
	movq	32(%rbp), %rax
	movq	%rax, %rcx
	call	push_lexerList
	.loc 1 488 0
	movq	40(%rbp), %rax
	movl	$8, %r8d
	movl	$0, %edx
	movq	%rax, %rcx
	call	memset
	.loc 1 489 0
	movq	24(%rbp), %rax
	movl	-80(%rbp), %edx
	movl	%edx, (%rax)
	.loc 1 490 0
	movl	-52(%rbp), %eax
	jmp	.L42
.L71:
	.loc 1 494 0
	movl	$-1, %eax
.L42:
	movq	%rbx, %rsp
	.loc 1 495 0
	leaq	-40(%rbp), %rsp
	popq	%rbx
	.cfi_restore 3
	popq	%rsi
	.cfi_restore 4
	popq	%rdi
	.cfi_restore 5
	popq	%rbp
	.cfi_restore 6
	.cfi_def_cfa 7, -56
	ret
	.cfi_endproc
.LFE14:
	.seh_endproc
	.section .rdata,"dr"
.LC5:
	.ascii "character\0"
	.text
	.globl	isChar
	.def	isChar;	.scl	2;	.type	32;	.endef
	.seh_proc	isChar
isChar:
.LFB15:
	.loc 1 500 0
	.cfi_startproc
	pushq	%rbp
	.seh_pushreg	%rbp
	.cfi_def_cfa_offset 16
	.cfi_offset 6, -16
	pushq	%rdi
	.seh_pushreg	%rdi
	.cfi_def_cfa_offset 24
	.cfi_offset 5, -24
	pushq	%rsi
	.seh_pushreg	%rsi
	.cfi_def_cfa_offset 32
	.cfi_offset 4, -32
	pushq	%rbx
	.seh_pushreg	%rbx
	.cfi_def_cfa_offset 40
	.cfi_offset 3, -40
	subq	$72, %rsp
	.seh_stackalloc	72
	.cfi_def_cfa_offset 112
	leaq	128(%rsp), %rbp
	.seh_setframe	%rbp, 128
	.cfi_def_cfa 6, -16
	.seh_endprologue
	movq	%rcx, -16(%rbp)
	movl	%edx, -8(%rbp)
	movl	%r8d, 0(%rbp)
	movq	%r9, 8(%rbp)
	.loc 1 500 0
	movq	%rsp, %rax
	movq	%rax, %rbx
	.loc 1 501 0
	movl	$0, -72(%rbp)
	.loc 1 502 0
	movl	0(%rbp), %edx
	movslq	%edx, %rax
	subq	$1, %rax
	movq	%rax, -80(%rbp)
	movslq	%edx, %rax
	movq	%rax, %rsi
	movl	$0, %edi
	movslq	%edx, %rax
	movq	%rax, %r10
	movl	$0, %r11d
	movslq	%edx, %rax
	addq	$15, %rax
	shrq	$4, %rax
	salq	$4, %rax
	call	___chkstk_ms
	subq	%rax, %rsp
	leaq	32(%rsp), %rax
	addq	$0, %rax
	movq	%rax, -88(%rbp)
	.loc 1 503 0
	movl	$0, -68(%rbp)
	.loc 1 505 0
	movslq	%edx, %rdx
	movq	-88(%rbp), %rax
	movq	%rdx, %r8
	movl	$0, %edx
	movq	%rax, %rcx
	call	memset
	.loc 1 506 0
	movl	-8(%rbp), %eax
	movslq	%eax, %rdx
	movq	-16(%rbp), %rax
	addq	%rdx, %rax
	movzbl	(%rax), %eax
	cmpb	$39, %al
	jne	.L75
	.loc 1 507 0
	movl	-8(%rbp), %eax
	movslq	%eax, %rdx
	movq	-16(%rbp), %rax
	addq	%rdx, %rax
	movzbl	(%rax), %ecx
	movq	-88(%rbp), %rdx
	movl	-68(%rbp), %eax
	cltq
	movb	%cl, (%rdx,%rax)
	.loc 1 508 0
	addl	$1, -68(%rbp)
	.loc 1 509 0
	addl	$1, -8(%rbp)
.L79:
	.loc 1 511 0
	movl	-8(%rbp), %eax
	cmpl	0(%rbp), %eax
	jge	.L76
	.loc 1 512 0
	addl	$1, -72(%rbp)
	.loc 1 513 0
	movl	-8(%rbp), %eax
	movslq	%eax, %rdx
	movq	-16(%rbp), %rax
	addq	%rdx, %rax
	movzbl	(%rax), %ecx
	movq	-88(%rbp), %rdx
	movl	-68(%rbp), %eax
	cltq
	movb	%cl, (%rdx,%rax)
	.loc 1 514 0
	addl	$1, -68(%rbp)
.L76:
	.loc 1 516 0
	addl	$1, -8(%rbp)
	.loc 1 517 0
	movl	-8(%rbp), %eax
	movslq	%eax, %rdx
	movq	-16(%rbp), %rax
	addq	%rdx, %rax
	movzbl	(%rax), %eax
	cmpb	$124, %al
	jne	.L77
	.loc 1 518 0
	subl	$1, -72(%rbp)
	.loc 1 519 0
	jmp	.L78
.L77:
	.loc 1 521 0
	movl	-8(%rbp), %eax
	movslq	%eax, %rdx
	movq	-16(%rbp), %rax
	addq	%rdx, %rax
	movzbl	(%rax), %eax
	cmpb	$10, %al
	jne	.L79
.L78:
	.loc 1 522 0
	movq	-88(%rbp), %rax
	movq	8(%rbp), %rdx
	movq	%rdx, %r8
	leaq	.LC5(%rip), %rdx
	movq	%rax, %rcx
	call	pushForLex
	.loc 1 523 0
	addl	$1, -72(%rbp)
	.loc 1 524 0
	movl	-72(%rbp), %eax
	jmp	.L80
.L75:
	.loc 1 526 0
	movl	$-1, %eax
.L80:
	movq	%rbx, %rsp
	.loc 1 527 0
	leaq	-56(%rbp), %rsp
	popq	%rbx
	.cfi_restore 3
	popq	%rsi
	.cfi_restore 4
	popq	%rdi
	.cfi_restore 5
	popq	%rbp
	.cfi_restore 6
	.cfi_def_cfa 7, -40
	ret
	.cfi_endproc
.LFE15:
	.seh_endproc
.Letext0:
	.file 2 "/usr/lib/gcc/x86_64-pc-cygwin/7.4.0/include/stddef.h"
	.file 3 "/usr/include/sys/lock.h"
	.file 4 "/usr/include/sys/_types.h"
	.file 5 "/usr/include/sys/reent.h"
	.file 6 "/usr/include/ctype.h"
	.file 7 "./src/../inc/lexer_node.h"