	.file	"lexer.c"
	.text
.Ltext0:
	.cfi_sections	.debug_frame
	.section .rdata,"dr"
.LC0:
	.ascii "r\0"
.LC1:
	.ascii "error while opening the file\0"
.LC2:
	.ascii "reading_buffer[pos] : %c\12\0"
.LC3:
	.ascii "keyword\0"
.LC4:
	.ascii "number\0"
.LC5:
	.ascii "identifier\0"
.LC6:
	.ascii "end of command\0"
	.align 8
.LC7:
	.ascii "Some other error interrupted the read.\0"
	.text
	.globl	lex
	.def	lex;	.scl	2;	.type	32;	.endef
	.seh_proc	lex
lex:
.LFB9:
	.file 1 "./src/lexer.c"
	.loc 1 3 0
	.cfi_startproc
	pushq	%rbp
	.seh_pushreg	%rbp
	.cfi_def_cfa_offset 16
	.cfi_offset 6, -16
	pushq	%rbx
	.seh_pushreg	%rbx
	.cfi_def_cfa_offset 24
	.cfi_offset 3, -24
	subq	$664, %rsp
	.seh_stackalloc	664
	.cfi_def_cfa_offset 688
	leaq	128(%rsp), %rbp
	.seh_setframe	%rbp, 128
	.cfi_def_cfa 6, 560
	.seh_endprologue
	movq	%rcx, -72(%rbp)
	movq	%rdx, -80(%rbp)
	.loc 1 3 0
	movq	.refptr.__stack_chk_guard(%rip), %rax
	movq	(%rax), %rbx
	movq	%rbx, 520(%rbp)
	xorl	%ebx, %ebx
	.loc 1 7 0
	movl	$0, -48(%rbp)
	movl	$0, -44(%rbp)
	movl	$0, -40(%rbp)
	movl	$0, -36(%rbp)
	movl	$0, -32(%rbp)
	.loc 1 8 0
	movl	$0, -56(%rbp)
	.loc 1 9 0
	movl	$0, -28(%rbp)
	.loc 1 10 0
	movl	$0, -60(%rbp)
	.loc 1 13 0
	movl	$32000, %ecx
	call	malloc
	movq	%rax, -16(%rbp)
	.loc 1 15 0
	movq	%rbp, %rax
	movl	$150, %r8d
	movl	$0, %edx
	movq	%rax, %rcx
	call	memset
	.loc 1 16 0
	leaq	320(%rbp), %rax
	movl	$200, %r8d
	movl	$0, %edx
	movq	%rax, %rcx
	call	memset
	.loc 1 17 0
	leaq	160(%rbp), %rax
	movl	$150, %r8d
	movl	$0, %edx
	movq	%rax, %rcx
	call	memset
	.loc 1 19 0
	movq	-80(%rbp), %rax
	leaq	.LC0(%rip), %rdx
	movq	%rax, %rcx
	call	fopen
	movq	%rax, -8(%rbp)
	.loc 1 21 0
	cmpq	$0, -8(%rbp)
	jne	.L3
	.loc 1 22 0
	leaq	.LC1(%rip), %rcx
	call	puts
	.loc 1 23 0
	movl	$0, %ecx
	call	exit
.L44:
	.loc 1 30 0
	movq	$0, -24(%rbp)
	jmp	.L4
.L43:
	.loc 1 31 0
	leaq	160(%rbp), %rdx
	movq	-24(%rbp), %rax
	addq	%rdx, %rax
	movzbl	(%rax), %eax
	movzbl	%al, %eax
	movl	%eax, %edx
	leaq	.LC2(%rip), %rcx
	call	printf
	.loc 1 37 0
	leaq	160(%rbp), %rax
	movq	%rax, %rcx
	call	strlen
	movl	%eax, %r8d
	movq	-24(%rbp), %rax
	movl	%eax, %r10d
	movq	-16(%rbp), %rcx
	leaq	160(%rbp), %rax
	leaq	320(%rbp), %rdx
	movq	%rdx, 32(%rsp)
	movq	%rcx, %r9
	movl	%r10d, %edx
	movq	%rax, %rcx
	call	isAtOperator
	movl	%eax, -48(%rbp)
	cmpl	$-1, -48(%rbp)
	je	.L5
	.loc 1 38 0
	movl	-48(%rbp), %eax
	cltq
	addq	%rax, -24(%rbp)
	.loc 1 39 0
	movl	-56(%rbp), %eax
	cltq
	movb	$0, 0(%rbp,%rax)
	.loc 1 40 0
	movl	$0, -56(%rbp)
	.loc 1 41 0
	movq	%rbp, %rax
	movq	%rax, %rcx
	call	isKeyword
	cmpl	$1, %eax
	jne	.L6
	.loc 1 42 0
	movq	-16(%rbp), %rdx
	movq	%rbp, %rax
	movq	%rdx, %r8
	leaq	.LC3(%rip), %rdx
	movq	%rax, %rcx
	call	pushForLex
	.loc 1 50 0
	jmp	.L10
.L6:
	.loc 1 43 0
	leaq	160(%rbp), %rax
	movq	%rax, %rcx
	call	strlen
	movl	%eax, %r8d
	movq	-24(%rbp), %rax
	movl	%eax, %r10d
	movq	-16(%rbp), %rcx
	leaq	160(%rbp), %rax
	leaq	320(%rbp), %rdx
	movq	%rdx, 32(%rsp)
	movq	%rcx, %r9
	movl	%r10d, %edx
	movq	%rax, %rcx
	call	isNumber
	cmpl	$-1, %eax
	je	.L8
	.loc 1 44 0
	movq	-16(%rbp), %rdx
	movq	%rbp, %rax
	movq	%rdx, %r8
	leaq	.LC4(%rip), %rdx
	movq	%rax, %rcx
	call	pushForLex
	.loc 1 50 0
	jmp	.L10
.L8:
	.loc 1 46 0
	movzbl	0(%rbp), %eax
	testb	%al, %al
	je	.L52
	.loc 1 48 0
	movq	-16(%rbp), %rdx
	movq	%rbp, %rax
	movq	%rdx, %r8
	leaq	.LC5(%rip), %rdx
	movq	%rax, %rcx
	call	pushForLex
	.loc 1 50 0
	jmp	.L10
.L5:
	.loc 1 56 0
	leaq	160(%rbp), %rdx
	movq	-24(%rbp), %rax
	addq	%rdx, %rax
	movzbl	(%rax), %eax
	cmpb	$10, %al
	jne	.L11
	.loc 1 57 0
	movq	-16(%rbp), %rax
	movq	%rax, %r8
	leaq	.LC6(%rip), %rdx
	movl	$0, %ecx
	call	pushForLex
	.loc 1 59 0
	movl	-56(%rbp), %eax
	cltq
	movb	$0, 0(%rbp,%rax)
	.loc 1 60 0
	movl	$0, -56(%rbp)
	.loc 1 62 0
	movq	%rbp, %rax
	movq	%rax, %rcx
	call	isKeyword
	cmpl	$1, %eax
	jne	.L12
	.loc 1 63 0
	movq	-16(%rbp), %rdx
	movq	%rbp, %rax
	movq	%rdx, %r8
	leaq	.LC3(%rip), %rdx
	movq	%rax, %rcx
	call	pushForLex
	.loc 1 69 0
	jmp	.L10
.L12:
	.loc 1 65 0
	movzbl	0(%rbp), %eax
	testb	%al, %al
	je	.L53
	.loc 1 67 0
	movq	-16(%rbp), %rdx
	movq	%rbp, %rax
	movq	%rdx, %r8
	leaq	.LC5(%rip), %rdx
	movq	%rax, %rcx
	call	pushForLex
	.loc 1 69 0
	jmp	.L10
.L11:
	.loc 1 75 0
	leaq	160(%rbp), %rax
	movq	%rax, %rcx
	call	strlen
	movl	%eax, %r8d
	movq	-24(%rbp), %rax
	movl	%eax, %r10d
	movq	-16(%rbp), %rcx
	leaq	160(%rbp), %rax
	leaq	320(%rbp), %rdx
	movq	%rdx, 32(%rsp)
	movq	%rcx, %r9
	movl	%r10d, %edx
	movq	%rax, %rcx
	call	isNumber
	movl	%eax, -36(%rbp)
	cmpl	$-1, -36(%rbp)
	je	.L15
	.loc 1 76 0
	subq	$1, -24(%rbp)
	movq	-24(%rbp), %rax
	movl	%eax, -28(%rbp)
	.loc 1 77 0
	call	__locale_ctype_ptr
	movq	%rax, %rdx
	.loc 1 77 0
	movl	-28(%rbp), %eax
	cltq
	movzbl	160(%rbp,%rax), %eax
	.loc 1 77 0
	movzbl	%al, %eax
	addq	$1, %rax
	addq	%rdx, %rax
	movzbl	(%rax), %eax
	.loc 1 77 0
	movzbl	%al, %eax
	andl	$7, %eax
	.loc 1 77 0
	testl	%eax, %eax
	jne	.L16
	.loc 1 77 0 discriminator 2
	movl	-28(%rbp), %eax
	cltq
	movzbl	160(%rbp,%rax), %eax
	cmpb	$95, %al
	jne	.L17
.L16:
.LBB2:
	.loc 1 79 0
	addq	$1, -24(%rbp)
	.loc 1 80 0
	movl	$0, -52(%rbp)
	jmp	.L18
.L19:
	.loc 1 81 0 discriminator 3
	movl	-56(%rbp), %eax
	leal	1(%rax), %edx
	movl	%edx, -56(%rbp)
	leaq	160(%rbp), %rcx
	movq	-24(%rbp), %rdx
	addq	%rcx, %rdx
	movzbl	(%rdx), %edx
	cltq
	movb	%dl, 0(%rbp,%rax)
	.loc 1 82 0 discriminator 3
	addq	$1, -24(%rbp)
	.loc 1 80 0 discriminator 3
	addl	$1, -52(%rbp)
.L18:
	.loc 1 80 0 is_stmt 0 discriminator 1
	movl	-52(%rbp), %eax
	cmpl	-36(%rbp), %eax
	jl	.L19
	.loc 1 84 0 is_stmt 1
	subq	$1, -24(%rbp)
	.loc 1 85 0
	jmp	.L10
.L17:
.LBE2:
	.loc 1 88 0
	addq	$1, -24(%rbp)
	.loc 1 89 0
	movl	-36(%rbp), %eax
	cltq
	addq	%rax, -24(%rbp)
	.loc 1 90 0
	leaq	160(%rbp), %rdx
	movq	-24(%rbp), %rax
	addq	%rdx, %rax
	movzbl	(%rax), %eax
	cmpb	$10, %al
	jne	.L15
	.loc 1 91 0
	movq	-16(%rbp), %rax
	movq	%rax, %r8
	leaq	.LC6(%rip), %rdx
	movl	$0, %ecx
	call	pushForLex
	.loc 1 93 0
	movl	-56(%rbp), %eax
	cltq
	movb	$0, 0(%rbp,%rax)
	.loc 1 94 0
	movl	$0, -56(%rbp)
	.loc 1 96 0
	movq	%rbp, %rax
	movq	%rax, %rcx
	call	isKeyword
	cmpl	$1, %eax
	jne	.L20
	.loc 1 97 0
	movq	-16(%rbp), %rdx
	movq	%rbp, %rax
	movq	%rdx, %r8
	leaq	.LC3(%rip), %rdx
	movq	%rax, %rcx
	call	pushForLex
	.loc 1 103 0
	jmp	.L10
.L20:
	.loc 1 99 0
	movzbl	0(%rbp), %eax
	testb	%al, %al
	je	.L54
	.loc 1 101 0
	movq	-16(%rbp), %rdx
	movq	%rbp, %rax
	movq	%rdx, %r8
	leaq	.LC5(%rip), %rdx
	movq	%rax, %rcx
	call	pushForLex
	.loc 1 103 0
	jmp	.L10
.L15:
	.loc 1 111 0
	leaq	160(%rbp), %rax
	movq	%rax, %rcx
	call	strlen
	movl	%eax, %r8d
	movq	-24(%rbp), %rax
	movl	%eax, %r10d
	leaq	-60(%rbp), %rcx
	leaq	160(%rbp), %rax
	leaq	320(%rbp), %rdx
	movq	%rdx, 40(%rsp)
	movq	-16(%rbp), %rdx
	movq	%rdx, 32(%rsp)
	movq	%rcx, %r9
	movl	%r10d, %edx
	movq	%rax, %rcx
	call	isSpecialSymbol
	movl	%eax, -40(%rbp)
	cmpl	$-1, -40(%rbp)
	je	.L23
	.loc 1 112 0
	movl	-40(%rbp), %eax
	cltq
	addq	%rax, -24(%rbp)
	.loc 1 113 0
	movl	-60(%rbp), %eax
	cmpl	$1, %eax
	jne	.L24
	.loc 1 114 0
	movl	-56(%rbp), %eax
	cltq
	movb	$0, 0(%rbp,%rax)
	.loc 1 115 0
	movl	$0, -56(%rbp)
	.loc 1 116 0
	movzbl	0(%rbp), %eax
	testb	%al, %al
	je	.L55
	.loc 1 118 0
	movq	%rbp, %rax
	movq	%rax, %rcx
	call	isKeyword
	cmpl	$1, %eax
	jne	.L26
	.loc 1 119 0
	movq	-16(%rbp), %rdx
	movq	%rbp, %rax
	movq	%rdx, %r8
	leaq	.LC3(%rip), %rdx
	movq	%rax, %rcx
	call	pushForLex
	.loc 1 122 0
	jmp	.L10
.L26:
	.loc 1 121 0
	movq	-16(%rbp), %rdx
	movq	%rbp, %rax
	movq	%rdx, %r8
	leaq	.LC5(%rip), %rdx
	movq	%rax, %rcx
	call	pushForLex
	.loc 1 122 0
	jmp	.L10
.L24:
	.loc 1 124 0
	movl	-60(%rbp), %eax
	cmpl	$2, %eax
	jne	.L56
	.loc 1 125 0
	subq	$1, -24(%rbp)
	.loc 1 126 0
	movl	-56(%rbp), %eax
	cltq
	movb	$0, 0(%rbp,%rax)
	.loc 1 127 0
	movl	$0, -56(%rbp)
	.loc 1 128 0
	movzbl	0(%rbp), %eax
	testb	%al, %al
	je	.L57
	.loc 1 130 0
	movq	%rbp, %rax
	movq	%rax, %rcx
	call	isKeyword
	cmpl	$1, %eax
	jne	.L30
	.loc 1 131 0
	movq	-16(%rbp), %rdx
	movq	%rbp, %rax
	movq	%rdx, %r8
	leaq	.LC3(%rip), %rdx
	movq	%rax, %rcx
	call	pushForLex
	.loc 1 134 0
	jmp	.L10
.L30:
	.loc 1 133 0
	movq	-16(%rbp), %rdx
	movq	%rbp, %rax
	movq	%rdx, %r8
	leaq	.LC5(%rip), %rdx
	movq	%rax, %rcx
	call	pushForLex
	.loc 1 134 0
	jmp	.L10
.L23:
	.loc 1 143 0
	leaq	160(%rbp), %rax
	movq	%rax, %rcx
	call	strlen
	movl	%eax, %r8d
	movq	-24(%rbp), %rax
	movl	%eax, %r10d
	movq	-16(%rbp), %rcx
	leaq	160(%rbp), %rax
	leaq	320(%rbp), %rdx
	movq	%rdx, 32(%rsp)
	movq	%rcx, %r9
	movl	%r10d, %edx
	movq	%rax, %rcx
	call	isChar
	movl	%eax, -32(%rbp)
	cmpl	$-1, -32(%rbp)
	je	.L32
	.loc 1 144 0
	movl	-32(%rbp), %eax
	cltq
	addq	%rax, -24(%rbp)
	.loc 1 145 0
	leaq	160(%rbp), %rdx
	movq	-24(%rbp), %rax
	addq	%rdx, %rax
	movzbl	(%rax), %eax
	cmpb	$10, %al
	jne	.L58
	.loc 1 146 0
	movq	-16(%rbp), %rax
	movq	%rax, %r8
	leaq	.LC6(%rip), %rdx
	movl	$0, %ecx
	call	pushForLex
	.loc 1 148 0
	movl	-56(%rbp), %eax
	cltq
	movb	$0, 0(%rbp,%rax)
	.loc 1 149 0
	movl	$0, -56(%rbp)
	.loc 1 151 0
	movq	%rbp, %rax
	movq	%rax, %rcx
	call	isKeyword
	cmpl	$1, %eax
	jne	.L34
	.loc 1 152 0
	movq	-16(%rbp), %rdx
	movq	%rbp, %rax
	movq	%rdx, %r8
	leaq	.LC3(%rip), %rdx
	movq	%rax, %rcx
	call	pushForLex
	.loc 1 159 0
	jmp	.L10
.L34:
	.loc 1 154 0
	movzbl	0(%rbp), %eax
	testb	%al, %al
	je	.L59
	.loc 1 156 0
	movq	-16(%rbp), %rdx
	movq	%rbp, %rax
	movq	%rdx, %r8
	leaq	.LC5(%rip), %rdx
	movq	%rax, %rcx
	call	pushForLex
	.loc 1 159 0
	jmp	.L10
.L32:
	.loc 1 167 0
	leaq	160(%rbp), %rax
	movq	%rax, %rcx
	call	strlen
	movl	%eax, %r8d
	movq	-24(%rbp), %rax
	movl	%eax, %r10d
	movq	-16(%rbp), %rcx
	leaq	160(%rbp), %rax
	leaq	320(%rbp), %rdx
	movq	%rdx, 32(%rsp)
	movq	%rcx, %r9
	movl	%r10d, %edx
	movq	%rax, %rcx
	call	isStringLiteral
	movl	%eax, -44(%rbp)
	cmpl	$-1, -44(%rbp)
	je	.L37
	.loc 1 168 0
	movl	-44(%rbp), %eax
	cltq
	addq	%rax, -24(%rbp)
	.loc 1 169 0
	jmp	.L10
.L37:
	.loc 1 172 0
	call	__locale_ctype_ptr
	movq	%rax, %rcx
	.loc 1 172 0
	leaq	160(%rbp), %rdx
	movq	-24(%rbp), %rax
	addq	%rdx, %rax
	movzbl	(%rax), %eax
	.loc 1 172 0
	movzbl	%al, %eax
	addq	$1, %rax
	addq	%rcx, %rax
	movzbl	(%rax), %eax
	.loc 1 172 0
	movzbl	%al, %eax
	andl	$7, %eax
	.loc 1 172 0
	testl	%eax, %eax
	jne	.L38
	.loc 1 172 0 discriminator 2
	leaq	160(%rbp), %rdx
	movq	-24(%rbp), %rax
	addq	%rdx, %rax
	movzbl	(%rax), %eax
	cmpb	$95, %al
	je	.L38
	.loc 1 172 0 discriminator 3
	call	__locale_ctype_ptr
	movq	%rax, %rcx
	.loc 1 172 0 discriminator 3
	leaq	160(%rbp), %rdx
	movq	-24(%rbp), %rax
	addq	%rdx, %rax
	movzbl	(%rax), %eax
	.loc 1 172 0 discriminator 3
	movzbl	%al, %eax
	addq	$1, %rax
	addq	%rcx, %rax
	movzbl	(%rax), %eax
	.loc 1 172 0 discriminator 3
	movzbl	%al, %eax
	andl	$4, %eax
	.loc 1 172 0 discriminator 3
	testl	%eax, %eax
	je	.L39
.L38:
	.loc 1 173 0
	movl	-56(%rbp), %eax
	leal	1(%rax), %edx
	movl	%edx, -56(%rbp)
	leaq	160(%rbp), %rcx
	movq	-24(%rbp), %rdx
	addq	%rcx, %rdx
	movzbl	(%rdx), %edx
	cltq
	movb	%dl, 0(%rbp,%rax)
	jmp	.L10
.L39:
	.loc 1 174 0
	leaq	160(%rbp), %rdx
	movq	-24(%rbp), %rax
	addq	%rdx, %rax
	movzbl	(%rax), %eax
	cmpb	$32, %al
	je	.L40
	.loc 1 175 0
	leaq	160(%rbp), %rdx
	movq	-24(%rbp), %rax
	addq	%rdx, %rax
	movzbl	(%rax), %eax
	cmpb	$10, %al
	je	.L40
	.loc 1 176 0
	leaq	160(%rbp), %rdx
	movq	-24(%rbp), %rax
	addq	%rdx, %rax
	movzbl	(%rax), %eax
	cmpb	$59, %al
	je	.L40
	.loc 1 177 0
	leaq	160(%rbp), %rdx
	movq	-24(%rbp), %rax
	addq	%rdx, %rax
	movzbl	(%rax), %eax
	movzbl	%al, %eax
	leaq	320(%rbp), %rcx
	movq	-16(%rbp), %rdx
	movq	%rcx, %r8
	movl	%eax, %ecx
	call	isOperator
	testl	%eax, %eax
	je	.L10
.L40:
	.loc 1 178 0
	cmpl	$0, -56(%rbp)
	je	.L10
	.loc 1 179 0
	movl	-56(%rbp), %eax
	cltq
	movb	$0, 0(%rbp,%rax)
	.loc 1 180 0
	movl	$0, -56(%rbp)
	.loc 1 182 0
	movq	%rbp, %rax
	movq	%rax, %rcx
	call	isKeyword
	cmpl	$1, %eax
	jne	.L41
	.loc 1 183 0
	movq	-16(%rbp), %rdx
	movq	%rbp, %rax
	movq	%rdx, %r8
	leaq	.LC3(%rip), %rdx
	movq	%rax, %rcx
	call	pushForLex
	jmp	.L10
.L41:
	.loc 1 185 0
	movq	-16(%rbp), %rdx
	movq	%rbp, %rax
	movq	%rdx, %r8
	leaq	.LC5(%rip), %rdx
	movq	%rax, %rcx
	call	pushForLex
	jmp	.L10
.L52:
	.loc 1 47 0
	nop
	jmp	.L10
.L53:
	.loc 1 66 0
	nop
	jmp	.L10
.L54:
	.loc 1 100 0
	nop
	jmp	.L10
.L55:
	.loc 1 117 0
	nop
	jmp	.L10
.L56:
	.loc 1 137 0
	nop
	jmp	.L10
.L57:
	.loc 1 129 0
	nop
	jmp	.L10
.L58:
	.loc 1 161 0
	nop
	jmp	.L10
.L59:
	.loc 1 155 0
	nop
.L10:
	.loc 1 30 0 discriminator 2
	addq	$1, -24(%rbp)
.L4:
	.loc 1 30 0 is_stmt 0 discriminator 1
	leaq	160(%rbp), %rax
	movq	%rax, %rcx
	call	strlen
	cmpq	%rax, -24(%rbp)
	jb	.L43
.L3:
	.loc 1 26 0 is_stmt 1
	movq	-8(%rbp), %rdx
	leaq	160(%rbp), %rax
	movq	%rdx, %r8
	movl	$150, %edx
	movq	%rax, %rcx
	call	fgets
	testq	%rax, %rax
	jne	.L44
	.loc 1 194 0
	movq	-8(%rbp), %rax
	movzwl	16(%rax), %eax
	cwtl
	andl	$32, %eax
	.loc 1 194 0
	testl	%eax, %eax
	je	.L45
	.loc 1 195 0
	cmpl	$0, -56(%rbp)
	je	.L49
	.loc 1 196 0
	movl	-56(%rbp), %eax
	cltq
	movb	$0, 0(%rbp,%rax)
	.loc 1 197 0
	movl	$0, -56(%rbp)
	.loc 1 199 0
	movq	%rbp, %rax
	movq	%rax, %rcx
	call	isKeyword
	cmpl	$1, %eax
	jne	.L47
	.loc 1 200 0
	movq	-16(%rbp), %rdx
	movq	%rbp, %rax
	movq	%rdx, %r8
	leaq	.LC3(%rip), %rdx
	movq	%rax, %rcx
	call	pushForLex
	jmp	.L49
.L47:
	.loc 1 201 0
	leaq	160(%rbp), %rax
	movq	%rax, %rcx
	call	strlen
	movl	%eax, %r8d
	movq	-24(%rbp), %rax
	movl	%eax, %r10d
	movq	-16(%rbp), %rcx
	leaq	160(%rbp), %rax
	leaq	320(%rbp), %rdx
	movq	%rdx, 32(%rsp)
	movq	%rcx, %r9
	movl	%r10d, %edx
	movq	%rax, %rcx
	call	isNumber
	cmpl	$-1, %eax
	je	.L48
	.loc 1 202 0
	movq	-16(%rbp), %rdx
	movq	%rbp, %rax
	movq	%rdx, %r8
	leaq	.LC4(%rip), %rdx
	movq	%rax, %rcx
	call	pushForLex
	jmp	.L49
.L48:
	.loc 1 204 0
	movq	-16(%rbp), %rdx
	movq	%rbp, %rax
	movq	%rdx, %r8
	leaq	.LC5(%rip), %rdx
	movq	%rax, %rcx
	call	pushForLex
	jmp	.L49
.L45:
	.loc 1 208 0
	leaq	.LC7(%rip), %rcx
	call	puts
.L49:
	.loc 1 210 0
	movq	-16(%rbp), %rax
	movq	%rax, %rcx
	call	free
	.loc 1 211 0
	movq	-8(%rbp), %rax
	movq	%rax, %rcx
	call	fclose
	.loc 1 212 0
	movq	-72(%rbp), %rax
	movq	-16(%rbp), %rdx
	movq	(%rdx), %rcx
	movq	8(%rdx), %rbx
	movq	%rcx, (%rax)
	movq	%rbx, 8(%rax)
	movq	16(%rdx), %rcx
	movq	24(%rdx), %rbx
	movq	%rcx, 16(%rax)
	movq	%rbx, 24(%rax)
	movq	32(%rdx), %rcx
	movq	40(%rdx), %rbx
	movq	%rcx, 32(%rax)
	movq	%rbx, 40(%rax)
	movq	48(%rdx), %rcx
	movq	56(%rdx), %rbx
	movq	%rcx, 48(%rax)
	movq	%rbx, 56(%rax)
	movq	64(%rdx), %rcx
	movq	72(%rdx), %rbx
	movq	%rcx, 64(%rax)
	movq	%rbx, 72(%rax)
	movq	80(%rdx), %rcx
	movq	88(%rdx), %rbx
	movq	%rcx, 80(%rax)
	movq	%rbx, 88(%rax)
	movq	96(%rdx), %rcx
	movq	104(%rdx), %rbx
	movq	%rcx, 96(%rax)
	movq	%rbx, 104(%rax)
	movq	112(%rdx), %rcx
	movq	120(%rdx), %rbx
	movq	%rcx, 112(%rax)
	movq	%rbx, 120(%rax)
	movq	128(%rdx), %rcx
	movq	136(%rdx), %rbx
	movq	%rcx, 128(%rax)
	movq	%rbx, 136(%rax)
	movq	152(%rdx), %rcx
	movq	144(%rdx), %rdx
	movq	%rdx, 144(%rax)
	movq	%rcx, 152(%rax)
	.loc 1 213 0
	movq	-72(%rbp), %rax
	movq	.refptr.__stack_chk_guard(%rip), %rdx
	movq	520(%rbp), %rbx
	xorq	(%rdx), %rbx
	je	.L51
	call	__stack_chk_fail
.L51:
	addq	$664, %rsp
	popq	%rbx
	.cfi_restore 3
	popq	%rbp
	.cfi_restore 6
	.cfi_def_cfa 7, -648
	ret
	.cfi_endproc
.LFE9:
	.seh_endproc
.Letext0:
	.file 2 "/usr/lib/gcc/x86_64-pc-cygwin/7.4.0/include/stddef.h"
	.file 3 "/usr/include/sys/lock.h"
	.file 4 "/usr/include/sys/_types.h"
	.file 5 "/usr/include/sys/reent.h"
	.file 6 "/usr/include/stdio.h"
	.file 7 "/usr/include/ctype.h"
	.file 8 "./src/../inc/lexer_node.h"
	.section	.rdata$.refptr.__stack_chk_guard, "dr"
	.globl	.refptr.__stack_chk_guard
	.linkonce	discard
.refptr.__stack_chk_guard:
	.quad	__stack_chk_guard
