	.file	"lexer_node.c"
	.text
.Ltext0:
	.cfi_sections	.debug_frame
	.section .rdata,"dr"
.LC0:
	.ascii "typeToPush to push is : %s\12\0"
.LC1:
	.ascii "keyword\0"
.LC2:
	.ascii "number\0"
.LC3:
	.ascii "identifier\0"
.LC4:
	.ascii "hexadecimal number\0"
.LC5:
	.ascii "string\0"
.LC6:
	.ascii "character\0"
.LC7:
	.ascii "operator\0"
	.text
	.globl	pushForLex
	.def	pushForLex;	.scl	2;	.type	32;	.endef
	.seh_proc	pushForLex
pushForLex:
.LFB9:
	.file 1 "./src/lexer_node.c"
	.loc 1 7 0
	.cfi_startproc
	pushq	%rbp
	.seh_pushreg	%rbp
	.cfi_def_cfa_offset 16
	.cfi_offset 6, -16
	subq	$272, %rsp
	.seh_stackalloc	272
	.cfi_def_cfa_offset 288
	leaq	128(%rsp), %rbp
	.seh_setframe	%rbp, 128
	.cfi_def_cfa 6, 160
	.seh_endprologue
	movq	%rcx, -72(%rbp)
	movq	%rdx, -80(%rbp)
	movq	%r8, -88(%rbp)
	.loc 1 7 0
	movq	.refptr.__stack_chk_guard(%rip), %rax
	movq	(%rax), %rcx
	movq	%rcx, 136(%rbp)
	xorl	%ecx, %ecx
	.loc 1 9 0
	leaq	-64(%rbp), %rax
	movl	$200, %r8d
	movl	$0, %edx
	movq	%rax, %rcx
	call	memset
	.loc 1 11 0
	movq	-80(%rbp), %rax
	movq	%rax, %rdx
	leaq	.LC0(%rip), %rcx
	call	printf
	.loc 1 13 0
	movq	-80(%rbp), %rax
	leaq	.LC1(%rip), %rdx
	movq	%rax, %rcx
	call	strcmp
	testl	%eax, %eax
	jne	.L2
	.loc 1 15 0
	leaq	-64(%rbp), %rax
	movabsq	$3198807458411275627, %rcx
	movq	%rcx, (%rax)
	movb	$0, 8(%rax)
	jmp	.L3
.L2:
	.loc 1 17 0
	movq	-80(%rbp), %rax
	leaq	.LC2(%rip), %rdx
	movq	%rax, %rcx
	call	strcmp
	testl	%eax, %eax
	jne	.L4
	.loc 1 19 0
	leaq	-64(%rbp), %rax
	movabsq	$12510678743872878, %rcx
	movq	%rcx, (%rax)
	jmp	.L3
.L4:
	.loc 1 21 0
	movq	-80(%rbp), %rax
	leaq	.LC3(%rip), %rdx
	movq	%rax, %rcx
	call	strcmp
	testl	%eax, %eax
	jne	.L5
	.loc 1 23 0
	leaq	-64(%rbp), %rax
	movabsq	$7594873770396181609, %rdx
	movq	%rdx, (%rax)
	movl	$2912869, 8(%rax)
	jmp	.L3
.L5:
	.loc 1 25 0
	movq	-80(%rbp), %rax
	leaq	.LC4(%rip), %rdx
	movq	%rax, %rcx
	call	strcmp
	testl	%eax, %eax
	jne	.L6
	.loc 1 27 0
	leaq	-64(%rbp), %rax
	movabsq	$7594024878483203432, %rdx
	movabsq	$7092454104029225325, %rcx
	movq	%rdx, (%rax)
	movq	%rcx, 8(%rax)
	movl	$2912869, 16(%rax)
	jmp	.L3
.L6:
	.loc 1 29 0
	movq	-80(%rbp), %rax
	leaq	.LC5(%rip), %rdx
	movq	%rax, %rcx
	call	strcmp
	testl	%eax, %eax
	jne	.L7
	.loc 1 31 0
	leaq	-64(%rbp), %rax
	movabsq	$12498622888440947, %rcx
	movq	%rcx, (%rax)
	jmp	.L3
.L7:
	.loc 1 33 0
	movq	-80(%rbp), %rax
	leaq	.LC6(%rip), %rdx
	movq	%rax, %rcx
	call	strcmp
	testl	%eax, %eax
	jne	.L8
	.loc 1 35 0
	leaq	-64(%rbp), %rax
	movabsq	$7310577365311121507, %rdx
	movq	%rdx, (%rax)
	movw	$11378, 8(%rax)
	movb	$0, 10(%rax)
	jmp	.L3
.L8:
	.loc 1 37 0
	movq	-80(%rbp), %rax
	leaq	.LC7(%rip), %rdx
	movq	%rax, %rcx
	call	strcmp
	testl	%eax, %eax
	jne	.L3
	.loc 1 39 0
	leaq	-64(%rbp), %rax
	movabsq	$8245937404618567791, %rcx
	movq	%rcx, (%rax)
	movw	$44, 8(%rax)
.L3:
	.loc 1 43 0
	cmpq	$0, -72(%rbp)
	je	.L9
	.loc 1 44 0
	movq	-72(%rbp), %rdx
	leaq	-64(%rbp), %rax
	movq	%rax, %rcx
	call	strcat
	jmp	.L10
.L9:
	.loc 1 46 0
	leaq	-64(%rbp), %rax
	movabsq	$7142821636480462437, %rdx
	movq	%rdx, (%rax)
	movl	$1634561391, 8(%rax)
	movw	$25710, 12(%rax)
	movb	$0, 14(%rax)
.L10:
	.loc 1 47 0
	leaq	-64(%rbp), %rdx
	movq	-88(%rbp), %rax
	movq	%rax, %rcx
	call	push_lexerList
	.loc 1 48 0
	nop
	movq	.refptr.__stack_chk_guard(%rip), %rax
	movq	136(%rbp), %rcx
	xorq	(%rax), %rcx
	je	.L11
	call	__stack_chk_fail
	nop
.L11:
	addq	$272, %rsp
	popq	%rbp
	.cfi_restore 6
	.cfi_def_cfa 7, -264
	ret
	.cfi_endproc
.LFE9:
	.seh_endproc
	.section .rdata,"dr"
.LC8:
	.ascii "w\0"
	.align 8
.LC9:
	.ascii "Error opening output file file!\0"
	.align 8
.LC10:
	.ascii "Press 1 if you want to print the results on the console\12or any number if you want to print on the file.\0"
.LC11:
	.ascii "%d\0"
.LC12:
	.ascii "counter-%d : %s\12\0"
.LC13:
	.ascii "%s\12\0"
	.text
	.globl	print_lexerList
	.def	print_lexerList;	.scl	2;	.type	32;	.endef
	.seh_proc	print_lexerList
print_lexerList:
.LFB10:
	.loc 1 53 0
	.cfi_startproc
	pushq	%rbp
	.seh_pushreg	%rbp
	.cfi_def_cfa_offset 16
	.cfi_offset 6, -16
	pushq	%rdi
	.seh_pushreg	%rdi
	.cfi_def_cfa_offset 24
	.cfi_offset 5, -24
	subq	$312, %rsp
	.seh_stackalloc	312
	.cfi_def_cfa_offset 336
	leaq	128(%rsp), %rbp
	.seh_setframe	%rbp, 128
	.cfi_def_cfa 6, 208
	.seh_endprologue
	movq	%rcx, -88(%rbp)
	movq	%rdx, -96(%rbp)
	.loc 1 53 0
	movq	.refptr.__stack_chk_guard(%rip), %rax
	movq	(%rax), %rdi
	movq	%rdi, 168(%rbp)
	xorl	%edi, %edi
	.loc 1 54 0
	movq	-88(%rbp), %rax
	movq	%rax, -64(%rbp)
	.loc 1 55 0
	movl	$0, -68(%rbp)
	.loc 1 60 0
	leaq	16(%rbp), %rax
	movl	$150, %r8d
	movl	$0, %edx
	movq	%rax, %rcx
	call	memset
	.loc 1 61 0
	leaq	-48(%rbp), %rax
	movl	$50, %r8d
	movl	$0, %edx
	movq	%rax, %rcx
	call	memset
	.loc 1 63 0
	movq	-96(%rbp), %rax
	leaq	.LC8(%rip), %rdx
	movq	%rax, %rcx
	call	fopen
	movq	%rax, -56(%rbp)
	.loc 1 64 0
	cmpq	$0, -56(%rbp)
	jne	.L13
	.loc 1 66 0
	leaq	.LC9(%rip), %rcx
	call	puts
	.loc 1 67 0
	movl	$1, %ecx
	call	exit
.L13:
	.loc 1 70 0
	movl	$10, %ecx
	call	putchar
	.loc 1 71 0
	leaq	.LC10(%rip), %rcx
	call	puts
	.loc 1 72 0
	leaq	-72(%rbp), %rax
	movq	%rax, %rdx
	leaq	.LC11(%rip), %rcx
	call	scanf
	.loc 1 74 0
	jmp	.L14
.L17:
	.loc 1 75 0
	addl	$1, -68(%rbp)
	.loc 1 76 0
	movl	-72(%rbp), %eax
	cmpl	$1, %eax
	jne	.L15
	.loc 1 77 0
	movq	-64(%rbp), %rdx
	movl	-68(%rbp), %eax
	movq	%rdx, %r8
	movl	%eax, %edx
	leaq	.LC12(%rip), %rcx
	call	printf
	jmp	.L16
.L15:
	.loc 1 79 0
	movl	-68(%rbp), %edx
	leaq	-48(%rbp), %rax
	movl	%edx, %r8d
	leaq	.LC11(%rip), %rdx
	movq	%rax, %rcx
	call	sprintf
	.loc 1 80 0
	leaq	16(%rbp), %rax
	movabsq	$3274791429795573603, %rdi
	movq	%rdi, (%rax)
	movb	$0, 8(%rax)
	.loc 1 81 0
	leaq	-48(%rbp), %rdx
	leaq	16(%rbp), %rax
	movq	%rax, %rcx
	call	strcat
	.loc 1 82 0
	leaq	16(%rbp), %rax
	movq	$-1, %rcx
	movq	%rax, %rdx
	movl	$0, %eax
	movq	%rdx, %rdi
	repnz scasb
	movq	%rcx, %rax
	notq	%rax
	leaq	-1(%rax), %rdx
	leaq	16(%rbp), %rax
	addq	%rdx, %rax
	movl	$2112032, (%rax)
	.loc 1 83 0
	movq	-64(%rbp), %rdx
	leaq	16(%rbp), %rax
	movq	%rax, %rcx
	call	strcat
	.loc 1 84 0
	leaq	16(%rbp), %rdx
	movq	-56(%rbp), %rax
	movq	%rdx, %r8
	leaq	.LC13(%rip), %rdx
	movq	%rax, %rcx
	call	fprintf
.L16:
	.loc 1 86 0
	movq	-64(%rbp), %rax
	movq	152(%rax), %rax
	movq	%rax, -64(%rbp)
.L14:
	.loc 1 74 0
	cmpq	$0, -64(%rbp)
	jne	.L17
	.loc 1 89 0
	movq	-56(%rbp), %rax
	movq	%rax, %rcx
	call	fclose
	.loc 1 90 0
	nop
	movq	.refptr.__stack_chk_guard(%rip), %rax
	movq	168(%rbp), %rdi
	xorq	(%rax), %rdi
	je	.L18
	call	__stack_chk_fail
	nop
.L18:
	addq	$312, %rsp
	popq	%rdi
	.cfi_restore 5
	popq	%rbp
	.cfi_restore 6
	.cfi_def_cfa 7, -296
	ret
	.cfi_endproc
.LFE10:
	.seh_endproc
	.globl	push_lexerList
	.def	push_lexerList;	.scl	2;	.type	32;	.endef
	.seh_proc	push_lexerList
push_lexerList:
.LFB11:
	.loc 1 95 0
	.cfi_startproc
	pushq	%rbp
	.seh_pushreg	%rbp
	.cfi_def_cfa_offset 16
	.cfi_offset 6, -16
	movq	%rsp, %rbp
	.seh_setframe	%rbp, 0
	.cfi_def_cfa_register 6
	subq	$48, %rsp
	.seh_stackalloc	48
	.seh_endprologue
	movq	%rcx, 16(%rbp)
	movq	%rdx, 24(%rbp)
	.loc 1 96 0
	movq	16(%rbp), %rax
	movq	%rax, -8(%rbp)
	.loc 1 97 0
	jmp	.L20
.L21:
	.loc 1 98 0
	movq	-8(%rbp), %rax
	movq	152(%rax), %rax
	movq	%rax, -8(%rbp)
.L20:
	.loc 1 97 0
	movq	-8(%rbp), %rax
	movq	152(%rax), %rax
	testq	%rax, %rax
	jne	.L21
	.loc 1 100 0
	movl	$160, %ecx
	call	malloc
	movq	%rax, %rdx
	movq	-8(%rbp), %rax
	movq	%rdx, 152(%rax)
	.loc 1 101 0
	movq	-8(%rbp), %rax
	movq	152(%rax), %rax
	movq	%rax, %rcx
	movq	24(%rbp), %rax
	movq	%rax, %rdx
	call	strcpy
	.loc 1 102 0
	movq	-8(%rbp), %rax
	movq	152(%rax), %rax
	movq	$0, 152(%rax)
	.loc 1 103 0
	nop
	addq	$48, %rsp
	popq	%rbp
	.cfi_restore 6
	.cfi_def_cfa 7, 8
	ret
	.cfi_endproc
.LFE11:
	.seh_endproc
.Letext0:
	.file 2 "/usr/lib/gcc/x86_64-pc-cygwin/7.4.0/include/stddef.h"
	.file 3 "/usr/include/sys/lock.h"
	.file 4 "/usr/include/sys/_types.h"
	.file 5 "/usr/include/sys/reent.h"
	.file 6 "/usr/include/stdio.h"
	.file 7 "/usr/include/ctype.h"
	.file 8 "./src/../inc/lexer_node.h"
	.section	.rdata$.refptr.__stack_chk_guard, "dr"
	.globl	.refptr.__stack_chk_guard
	.linkonce	discard
.refptr.__stack_chk_guard:
	.quad	__stack_chk_guard
