	.file	"parser.c"
	.text
.Ltext0:
	.cfi_sections	.debug_frame
	.globl	parseProgram
	.def	parseProgram;	.scl	2;	.type	32;	.endef
	.seh_proc	parseProgram
parseProgram:
.LFB9:
	.file 1 "./src/parser.c"
	.loc 1 7 0
	.cfi_startproc
	pushq	%rbp
	.seh_pushreg	%rbp
	.cfi_def_cfa_offset 16
	.cfi_offset 6, -16
	movq	%rsp, %rbp
	.seh_setframe	%rbp, 0
	.cfi_def_cfa_register 6
	subq	$64, %rsp
	.seh_stackalloc	64
	.seh_endprologue
	movq	%rcx, 16(%rbp)
	.loc 1 8 0
	movl	$32, %ecx
	call	malloc
	movq	%rax, -24(%rbp)
	.loc 1 9 0
	movl	$312, %ecx
	call	malloc
	movq	%rax, -16(%rbp)
	.loc 1 10 0
	movq	16(%rbp), %rax
	movq	%rax, -8(%rbp)
	.loc 1 11 0
	movq	-16(%rbp), %rcx
	movq	-24(%rbp), %rdx
	movq	-8(%rbp), %rax
	movq	%rcx, %r8
	movq	%rax, %rcx
	call	parsing
	.loc 1 12 0
	movq	-24(%rbp), %rax
	movq	%rax, %rcx
	call	print_commandList
	.loc 1 14 0
	nop
	.loc 1 15 0
	addq	$64, %rsp
	popq	%rbp
	.cfi_restore 6
	.cfi_def_cfa 7, 8
	ret
	.cfi_endproc
.LFE9:
	.seh_endproc
	.section .rdata,"dr"
.LC0:
	.ascii "Type in the loop : %s\12\0"
.LC1:
	.ascii "import\0"
.LC2:
	.ascii "Import statement to be built.\0"
	.align 8
.LC3:
	.ascii "**********************************************************\0"
.LC4:
	.ascii "main\0"
.LC5:
	.ascii "Main statement to be built.\0"
.LC6:
	.ascii "load\0"
.LC7:
	.ascii "Load statement to be built.\0"
.LC8:
	.ascii "print\0"
.LC9:
	.ascii "Print statement to be built.\0"
.LC10:
	.ascii "sleep\0"
.LC11:
	.ascii "Sleep statement to be built.\0"
.LC12:
	.ascii "delete\0"
.LC13:
	.ascii "Delete statement to be built.\0"
.LC14:
	.ascii "cast\0"
.LC15:
	.ascii "Cast statement to be built.\0"
.LC16:
	.ascii "array_add\0"
	.align 8
.LC17:
	.ascii "Array_add statement to be built.\0"
.LC18:
	.ascii "scan\0"
.LC19:
	.ascii "Scan statement to be built.\0"
.LC20:
	.ascii "string\0"
.LC21:
	.ascii "String keyword going in.\0"
.LC22:
	.ascii "int\0"
.LC23:
	.ascii "Int keyword going in.\0"
.LC24:
	.ascii "float\0"
.LC25:
	.ascii "Float keyword going in.\0"
.LC26:
	.ascii "char\0"
.LC27:
	.ascii "Char keyword going in.\0"
.LC28:
	.ascii "bool\0"
.LC29:
	.ascii "Bool keyword going in.\0"
.LC30:
	.ascii "void\0"
.LC31:
	.ascii "Void keyword going in.\0"
.LC32:
	.ascii "@\0"
.LC33:
	.ascii "/@\0"
.LC34:
	.ascii "Part of comment %s.\12\0"
.LC35:
	.ascii "Operator @ going in.\0"
.LC36:
	.ascii "if\0"
.LC37:
	.ascii "If statement to be built.\0"
.LC38:
	.ascii "while\0"
.LC39:
	.ascii "While statement to be built.\0"
.LC40:
	.ascii "for\0"
.LC41:
	.ascii "For statement to be built.\0"
.LC42:
	.ascii "each\0"
.LC43:
	.ascii "Each statement to be built.\0"
.LC44:
	.ascii "defer\0"
.LC45:
	.ascii "Defer statement to be built.\0"
.LC46:
	.ascii "+\0"
.LC47:
	.ascii "Operator + going in.\0"
.LC48:
	.ascii "-\0"
.LC49:
	.ascii "Operator - going in.\0"
.LC50:
	.ascii "*\0"
.LC51:
	.ascii "Operator * going in.\0"
.LC52:
	.ascii "/\0"
.LC53:
	.ascii "Operator / going in.\0"
.LC54:
	.ascii "++\0"
.LC55:
	.ascii "Operator ++ going in.\0"
.LC56:
	.ascii "--\0"
.LC57:
	.ascii "Operator -- going in.\0"
.LC58:
	.ascii "+=\0"
.LC59:
	.ascii "Operator += going in.\0"
.LC60:
	.ascii "-=\0"
.LC61:
	.ascii "Operator -= going in.\0"
.LC62:
	.ascii "*=\0"
.LC63:
	.ascii "Operator *= going in.\0"
.LC64:
	.ascii "/=\0"
.LC65:
	.ascii "Operator /= going in.\0"
.LC66:
	.ascii ">\0"
.LC67:
	.ascii "Operator > going in.\0"
.LC68:
	.ascii "<\0"
.LC69:
	.ascii "Operator < going in.\0"
.LC70:
	.ascii ">=\0"
.LC71:
	.ascii "Operator >= going in.\0"
.LC72:
	.ascii "<=\0"
.LC73:
	.ascii "Operator <= going in.\0"
.LC74:
	.ascii "@==\0"
.LC75:
	.ascii "Operator @== going in.\0"
.LC76:
	.ascii "Comment symbol going in.\0"
.LC77:
	.ascii "[\0"
.LC78:
	.ascii "Array start going in.\0"
.LC79:
	.ascii "]\0"
.LC80:
	.ascii "Array end going in.\0"
.LC81:
	.ascii "^\0"
.LC82:
	.ascii "Operator ^ going in.\0"
.LC83:
	.ascii "Value in the loop : %s\12\0"
.LC84:
	.ascii "struct\0"
.LC85:
	.ascii "Struct statement to be built.\0"
.LC86:
	.ascii "The struct variable : %s\12\0"
.LC87:
	.ascii "enum\0"
.LC88:
	.ascii "Enum statement to be built.\0"
.LC89:
	.ascii "The enum variable : %s\12\0"
.LC90:
	.ascii "union\0"
.LC91:
	.ascii "Union statement to be built/\0"
.LC92:
	.ascii "The union variable : %s\12\0"
.LC93:
	.ascii "assert\0"
.LC94:
	.ascii "Assert statement to be built.\0"
.LC95:
	.ascii "return\0"
.LC96:
	.ascii "Return statement to be built.\0"
.LC97:
	.ascii "block end\0"
.LC98:
	.ascii "Going to clear the flags.\0"
	.align 8
.LC99:
	.ascii "The stack at string type is not empty\0"
.LC100:
	.ascii "Going to push the value : %s\12\0"
.LC101:
	.ascii "hexadecimal number\0"
.LC102:
	.ascii "It is member of : %d\12\0"
.LC103:
	.ascii "%d\0"
.LC104:
	.ascii "array end\0"
.LC105:
	.ascii "Valid array.\0"
.LC106:
	.ascii "Not a valid array.\0"
	.align 8
.LC107:
	.ascii "The stack at number type is not empty.\0"
	.align 8
.LC108:
	.ascii "Going to insert the value : %s\12\0"
	.align 8
.LC109:
	.ascii "The stack at number type is empty.\0"
	.align 8
.LC110:
	.ascii "This is the last part of the comment\0"
	.align 8
.LC111:
	.ascii "Operator @ is in the stack now.\0"
.LC112:
	.ascii "global\0"
.LC113:
	.ascii "This is part of a comment %s\12\0"
.LC114:
	.ascii "end of command\0"
	.align 8
.LC115:
	.ascii "The stack at identifier type is not empty\0"
	.align 8
.LC116:
	.ascii "The stack at identifier type is empty.\0"
.LC117:
	.ascii "character\0"
	.align 8
.LC118:
	.ascii "The stack at character type is not empty.\0"
.LC119:
	.ascii "keyword\0"
.LC120:
	.ascii "break\0"
.LC121:
	.ascii "continue\0"
.LC122:
	.ascii "new\0"
.LC123:
	.ascii "null\0"
.LC124:
	.ascii "true\0"
.LC125:
	.ascii "false\0"
.LC126:
	.ascii "End of the comment.\0"
	.align 8
.LC127:
	.ascii "Going to build delete statement.\0"
.LC128:
	.ascii "Going for just a declaration\0"
	.align 8
.LC129:
	.ascii "Going to clear assert flags at the end of command.\0"
	.text
	.globl	parsing
	.def	parsing;	.scl	2;	.type	32;	.endef
	.seh_proc	parsing
parsing:
.LFB10:
	.loc 1 20 0
	.cfi_startproc
	pushq	%rbp
	.seh_pushreg	%rbp
	.cfi_def_cfa_offset 16
	.cfi_offset 6, -16
	pushq	%rbx
	.seh_pushreg	%rbx
	.cfi_def_cfa_offset 24
	.cfi_offset 3, -24
	movl	$20856, %eax
	call	___chkstk_ms
	subq	%rax, %rsp
	.seh_stackalloc	20856
	.cfi_def_cfa_offset 20880
	leaq	128(%rsp), %rbp
	.seh_setframe	%rbp, 128
	.cfi_def_cfa 6, 20752
	.seh_endprologue
	movq	%rcx, 8(%rbp)
	movq	%rdx, 0(%rbp)
	movq	%r8, -8(%rbp)
	.loc 1 20 0
	movq	.refptr.__stack_chk_guard(%rip), %rax
	movq	(%rax), %rbx
	movq	%rbx, 20712(%rbp)
	xorl	%ebx, %ebx
	.loc 1 22 0
	movl	$0, 32(%rbp)
	.loc 1 23 0
	movl	$0, 36(%rbp)
	.loc 1 24 0
	movl	$0, 40(%rbp)
	.loc 1 28 0
	movl	$0, 48(%rbp)
	.loc 1 30 0
	leaq	28(%rbp), %rax
	movq	%rax, %rcx
	call	init
	.loc 1 31 0
	leaq	20496(%rbp), %rax
	movl	$100, %r8d
	movl	$0, %edx
	movq	%rax, %rcx
	call	memset
	.loc 1 32 0
	leaq	20608(%rbp), %rax
	movl	$100, %r8d
	movl	$0, %edx
	movq	%rax, %rcx
	call	memset
	.loc 1 36 0
	jmp	.L4
.L164:
	.loc 1 37 0
	movq	8(%rbp), %rax
	addq	$4, %rax
	movq	%rax, %rdx
	leaq	.LC0(%rip), %rcx
	call	printf
	.loc 1 39 0
	movq	8(%rbp), %rax
	addq	$104, %rax
	leaq	.LC1(%rip), %rdx
	movq	%rax, %rcx
	call	strcmp
	testl	%eax, %eax
	jne	.L5
	.loc 1 40 0
	leaq	.LC2(%rip), %rcx
	call	puts
	.loc 1 41 0
	movq	8(%rbp), %rax
	leaq	104(%rax), %r8
	movl	28(%rbp), %eax
	leaq	464(%rbp), %rcx
	movslq	%eax, %rdx
	movq	%rdx, %rax
	salq	$2, %rax
	addq	%rdx, %rax
	leaq	0(,%rax,4), %rdx
	addq	%rdx, %rax
	salq	$2, %rax
	addq	%rax, %rcx
	leaq	28(%rbp), %rax
	movq	%rax, %rdx
	call	push
	.loc 1 42 0
	leaq	.LC3(%rip), %rcx
	call	puts
	.loc 1 43 0
	movq	8(%rbp), %rax
	movq	208(%rax), %rax
	movq	%rax, 8(%rbp)
	.loc 1 44 0
	jmp	.L4
.L5:
	.loc 1 46 0
	movq	8(%rbp), %rax
	addq	$104, %rax
	leaq	.LC4(%rip), %rdx
	movq	%rax, %rcx
	call	strcmp
	testl	%eax, %eax
	jne	.L6
.LBB2:
	.loc 1 47 0
	leaq	.LC5(%rip), %rcx
	call	puts
	.loc 1 48 0
	movl	$-1, 64(%rsp)
	movq	$0, 56(%rsp)
	movq	$0, 48(%rsp)
	movq	$0, 40(%rsp)
	movq	$0, 32(%rsp)
	movl	$0, %r9d
	movl	$0, %r8d
	movl	$0, %edx
	movl	$16, %ecx
	call	stmt_create
	movq	%rax, 424(%rbp)
	.loc 1 49 0
	movq	424(%rbp), %rdx
	movq	0(%rbp), %rax
	movl	$0, %r9d
	movq	%rdx, %r8
	movl	$0, %edx
	movq	%rax, %rcx
	call	push_commandList
	.loc 1 50 0
	movl	$1, 448(%rbp)
	.loc 1 51 0
	leaq	.LC3(%rip), %rcx
	call	puts
	.loc 1 52 0
	movq	8(%rbp), %rax
	movq	208(%rax), %rax
	movq	%rax, 8(%rbp)
	.loc 1 53 0
	jmp	.L4
.L6:
.LBE2:
	.loc 1 55 0
	movq	8(%rbp), %rax
	addq	$104, %rax
	leaq	.LC6(%rip), %rdx
	movq	%rax, %rcx
	call	strcmp
	testl	%eax, %eax
	jne	.L7
	.loc 1 56 0
	leaq	.LC7(%rip), %rcx
	call	puts
	.loc 1 57 0
	movq	8(%rbp), %rax
	leaq	104(%rax), %r8
	movl	28(%rbp), %eax
	leaq	464(%rbp), %rcx
	movslq	%eax, %rdx
	movq	%rdx, %rax
	salq	$2, %rax
	addq	%rdx, %rax
	leaq	0(,%rax,4), %rdx
	addq	%rdx, %rax
	salq	$2, %rax
	addq	%rax, %rcx
	leaq	28(%rbp), %rax
	movq	%rax, %rdx
	call	push
	.loc 1 58 0
	leaq	.LC3(%rip), %rcx
	call	puts
	.loc 1 59 0
	movq	8(%rbp), %rax
	movq	208(%rax), %rax
	movq	%rax, 8(%rbp)
	.loc 1 60 0
	jmp	.L4
.L7:
	.loc 1 62 0
	movq	8(%rbp), %rax
	addq	$104, %rax
	leaq	.LC8(%rip), %rdx
	movq	%rax, %rcx
	call	strcmp
	testl	%eax, %eax
	jne	.L8
	.loc 1 63 0
	leaq	.LC9(%rip), %rcx
	call	puts
	.loc 1 64 0
	movq	8(%rbp), %rax
	leaq	104(%rax), %r8
	movl	28(%rbp), %eax
	leaq	464(%rbp), %rcx
	movslq	%eax, %rdx
	movq	%rdx, %rax
	salq	$2, %rax
	addq	%rdx, %rax
	leaq	0(,%rax,4), %rdx
	addq	%rdx, %rax
	salq	$2, %rax
	addq	%rax, %rcx
	leaq	28(%rbp), %rax
	movq	%rax, %rdx
	call	push
	.loc 1 65 0
	leaq	.LC3(%rip), %rcx
	call	puts
	.loc 1 66 0
	movq	8(%rbp), %rax
	movq	208(%rax), %rax
	movq	%rax, 8(%rbp)
	.loc 1 67 0
	jmp	.L4
.L8:
	.loc 1 69 0
	movq	8(%rbp), %rax
	addq	$104, %rax
	leaq	.LC10(%rip), %rdx
	movq	%rax, %rcx
	call	strcmp
	testl	%eax, %eax
	jne	.L9
	.loc 1 70 0
	leaq	.LC11(%rip), %rcx
	call	puts
	.loc 1 71 0
	movq	8(%rbp), %rax
	leaq	104(%rax), %r8
	movl	28(%rbp), %eax
	leaq	464(%rbp), %rcx
	movslq	%eax, %rdx
	movq	%rdx, %rax
	salq	$2, %rax
	addq	%rdx, %rax
	leaq	0(,%rax,4), %rdx
	addq	%rdx, %rax
	salq	$2, %rax
	addq	%rax, %rcx
	leaq	28(%rbp), %rax
	movq	%rax, %rdx
	call	push
	.loc 1 72 0
	leaq	.LC3(%rip), %rcx
	call	puts
	.loc 1 73 0
	movq	8(%rbp), %rax
	movq	208(%rax), %rax
	movq	%rax, 8(%rbp)
	.loc 1 74 0
	jmp	.L4
.L9:
	.loc 1 76 0
	movq	8(%rbp), %rax
	addq	$104, %rax
	leaq	.LC12(%rip), %rdx
	movq	%rax, %rcx
	call	strcmp
	testl	%eax, %eax
	jne	.L10
	.loc 1 77 0
	leaq	.LC13(%rip), %rcx
	call	puts
	.loc 1 78 0
	movq	8(%rbp), %rax
	leaq	104(%rax), %r8
	movl	28(%rbp), %eax
	leaq	464(%rbp), %rcx
	movslq	%eax, %rdx
	movq	%rdx, %rax
	salq	$2, %rax
	addq	%rdx, %rax
	leaq	0(,%rax,4), %rdx
	addq	%rdx, %rax
	salq	$2, %rax
	addq	%rax, %rcx
	leaq	28(%rbp), %rax
	movq	%rax, %rdx
	call	push
	.loc 1 79 0
	leaq	.LC3(%rip), %rcx
	call	puts
	.loc 1 80 0
	movq	8(%rbp), %rax
	movq	208(%rax), %rax
	movq	%rax, 8(%rbp)
	.loc 1 81 0
	jmp	.L4
.L10:
	.loc 1 83 0
	movq	8(%rbp), %rax
	addq	$104, %rax
	leaq	.LC14(%rip), %rdx
	movq	%rax, %rcx
	call	strcmp
	testl	%eax, %eax
	jne	.L11
	.loc 1 84 0
	leaq	.LC15(%rip), %rcx
	call	puts
	.loc 1 85 0
	movq	8(%rbp), %rax
	leaq	104(%rax), %r8
	movl	28(%rbp), %eax
	leaq	464(%rbp), %rcx
	movslq	%eax, %rdx
	movq	%rdx, %rax
	salq	$2, %rax
	addq	%rdx, %rax
	leaq	0(,%rax,4), %rdx
	addq	%rdx, %rax
	salq	$2, %rax
	addq	%rax, %rcx
	leaq	28(%rbp), %rax
	movq	%rax, %rdx
	call	push
	.loc 1 86 0
	leaq	.LC3(%rip), %rcx
	call	puts
	.loc 1 87 0
	movq	8(%rbp), %rax
	movq	208(%rax), %rax
	movq	%rax, 8(%rbp)
	.loc 1 88 0
	jmp	.L4
.L11:
	.loc 1 90 0
	movq	8(%rbp), %rax
	addq	$104, %rax
	leaq	.LC16(%rip), %rdx
	movq	%rax, %rcx
	call	strcmp
	testl	%eax, %eax
	jne	.L12
	.loc 1 91 0
	leaq	.LC17(%rip), %rcx
	call	puts
	.loc 1 92 0
	movq	8(%rbp), %rax
	leaq	104(%rax), %r8
	movl	28(%rbp), %eax
	leaq	464(%rbp), %rcx
	movslq	%eax, %rdx
	movq	%rdx, %rax
	salq	$2, %rax
	addq	%rdx, %rax
	leaq	0(,%rax,4), %rdx
	addq	%rdx, %rax
	salq	$2, %rax
	addq	%rax, %rcx
	leaq	28(%rbp), %rax
	movq	%rax, %rdx
	call	push
	.loc 1 93 0
	leaq	.LC3(%rip), %rcx
	call	puts
	.loc 1 94 0
	movq	8(%rbp), %rax
	movq	208(%rax), %rax
	movq	%rax, 8(%rbp)
	.loc 1 95 0
	jmp	.L4
.L12:
	.loc 1 97 0
	movq	8(%rbp), %rax
	addq	$104, %rax
	leaq	.LC18(%rip), %rdx
	movq	%rax, %rcx
	call	strcmp
	testl	%eax, %eax
	jne	.L13
	.loc 1 98 0
	leaq	.LC19(%rip), %rcx
	call	puts
	.loc 1 99 0
	movq	8(%rbp), %rax
	leaq	104(%rax), %r8
	movl	28(%rbp), %eax
	leaq	464(%rbp), %rcx
	movslq	%eax, %rdx
	movq	%rdx, %rax
	salq	$2, %rax
	addq	%rdx, %rax
	leaq	0(,%rax,4), %rdx
	addq	%rdx, %rax
	salq	$2, %rax
	addq	%rax, %rcx
	leaq	28(%rbp), %rax
	movq	%rax, %rdx
	call	push
	.loc 1 100 0
	leaq	.LC3(%rip), %rcx
	call	puts
	.loc 1 101 0
	movq	8(%rbp), %rax
	movq	208(%rax), %rax
	movq	%rax, 8(%rbp)
	.loc 1 102 0
	jmp	.L4
.L13:
	.loc 1 104 0
	movq	8(%rbp), %rax
	addq	$104, %rax
	leaq	.LC20(%rip), %rdx
	movq	%rax, %rcx
	call	strcmp
	testl	%eax, %eax
	jne	.L14
	.loc 1 105 0
	leaq	.LC21(%rip), %rcx
	call	puts
	.loc 1 106 0
	movq	8(%rbp), %rax
	leaq	104(%rax), %r8
	movl	28(%rbp), %eax
	leaq	464(%rbp), %rcx
	movslq	%eax, %rdx
	movq	%rdx, %rax
	salq	$2, %rax
	addq	%rdx, %rax
	leaq	0(,%rax,4), %rdx
	addq	%rdx, %rax
	salq	$2, %rax
	addq	%rax, %rcx
	leaq	28(%rbp), %rax
	movq	%rax, %rdx
	call	push
	.loc 1 107 0
	leaq	.LC3(%rip), %rcx
	call	puts
	.loc 1 108 0
	movq	8(%rbp), %rax
	movq	208(%rax), %rax
	movq	%rax, 8(%rbp)
	.loc 1 109 0
	jmp	.L4
.L14:
	.loc 1 111 0
	movq	8(%rbp), %rax
	addq	$104, %rax
	leaq	.LC22(%rip), %rdx
	movq	%rax, %rcx
	call	strcmp
	testl	%eax, %eax
	jne	.L15
	.loc 1 112 0
	leaq	.LC23(%rip), %rcx
	call	puts
	.loc 1 113 0
	movq	8(%rbp), %rax
	leaq	104(%rax), %r8
	movl	28(%rbp), %eax
	leaq	464(%rbp), %rcx
	movslq	%eax, %rdx
	movq	%rdx, %rax
	salq	$2, %rax
	addq	%rdx, %rax
	leaq	0(,%rax,4), %rdx
	addq	%rdx, %rax
	salq	$2, %rax
	addq	%rax, %rcx
	leaq	28(%rbp), %rax
	movq	%rax, %rdx
	call	push
	.loc 1 114 0
	leaq	.LC3(%rip), %rcx
	call	puts
	.loc 1 115 0
	movq	8(%rbp), %rax
	movq	208(%rax), %rax
	movq	%rax, 8(%rbp)
	.loc 1 116 0
	jmp	.L4
.L15:
	.loc 1 118 0
	movq	8(%rbp), %rax
	addq	$104, %rax
	leaq	.LC24(%rip), %rdx
	movq	%rax, %rcx
	call	strcmp
	testl	%eax, %eax
	jne	.L16
	.loc 1 119 0
	leaq	.LC25(%rip), %rcx
	call	puts
	.loc 1 120 0
	movq	8(%rbp), %rax
	leaq	104(%rax), %r8
	movl	28(%rbp), %eax
	leaq	464(%rbp), %rcx
	movslq	%eax, %rdx
	movq	%rdx, %rax
	salq	$2, %rax
	addq	%rdx, %rax
	leaq	0(,%rax,4), %rdx
	addq	%rdx, %rax
	salq	$2, %rax
	addq	%rax, %rcx
	leaq	28(%rbp), %rax
	movq	%rax, %rdx
	call	push
	.loc 1 121 0
	leaq	.LC3(%rip), %rcx
	call	puts
	.loc 1 122 0
	movq	8(%rbp), %rax
	movq	208(%rax), %rax
	movq	%rax, 8(%rbp)
	.loc 1 123 0
	jmp	.L4
.L16:
	.loc 1 125 0
	movq	8(%rbp), %rax
	addq	$104, %rax
	leaq	.LC26(%rip), %rdx
	movq	%rax, %rcx
	call	strcmp
	testl	%eax, %eax
	jne	.L17
	.loc 1 126 0
	leaq	.LC27(%rip), %rcx
	call	puts
	.loc 1 127 0
	movq	8(%rbp), %rax
	leaq	104(%rax), %r8
	movl	28(%rbp), %eax
	leaq	464(%rbp), %rcx
	movslq	%eax, %rdx
	movq	%rdx, %rax
	salq	$2, %rax
	addq	%rdx, %rax
	leaq	0(,%rax,4), %rdx
	addq	%rdx, %rax
	salq	$2, %rax
	addq	%rax, %rcx
	leaq	28(%rbp), %rax
	movq	%rax, %rdx
	call	push
	.loc 1 128 0
	leaq	.LC3(%rip), %rcx
	call	puts
	.loc 1 129 0
	movq	8(%rbp), %rax
	movq	208(%rax), %rax
	movq	%rax, 8(%rbp)
	.loc 1 130 0
	jmp	.L4
.L17:
	.loc 1 132 0
	movq	8(%rbp), %rax
	addq	$104, %rax
	leaq	.LC28(%rip), %rdx
	movq	%rax, %rcx
	call	strcmp
	testl	%eax, %eax
	jne	.L18
	.loc 1 133 0
	leaq	.LC29(%rip), %rcx
	call	puts
	.loc 1 134 0
	movq	8(%rbp), %rax
	leaq	104(%rax), %r8
	movl	28(%rbp), %eax
	leaq	464(%rbp), %rcx
	movslq	%eax, %rdx
	movq	%rdx, %rax
	salq	$2, %rax
	addq	%rdx, %rax
	leaq	0(,%rax,4), %rdx
	addq	%rdx, %rax
	salq	$2, %rax
	addq	%rax, %rcx
	leaq	28(%rbp), %rax
	movq	%rax, %rdx
	call	push
	.loc 1 135 0
	leaq	.LC3(%rip), %rcx
	call	puts
	.loc 1 136 0
	movq	8(%rbp), %rax
	movq	208(%rax), %rax
	movq	%rax, 8(%rbp)
	.loc 1 137 0
	jmp	.L4
.L18:
	.loc 1 139 0
	movq	8(%rbp), %rax
	addq	$104, %rax
	leaq	.LC30(%rip), %rdx
	movq	%rax, %rcx
	call	strcmp
	testl	%eax, %eax
	jne	.L19
	.loc 1 140 0
	leaq	.LC31(%rip), %rcx
	call	puts
	.loc 1 141 0
	movq	8(%rbp), %rax
	leaq	104(%rax), %r8
	movl	28(%rbp), %eax
	leaq	464(%rbp), %rcx
	movslq	%eax, %rdx
	movq	%rdx, %rax
	salq	$2, %rax
	addq	%rdx, %rax
	leaq	0(,%rax,4), %rdx
	addq	%rdx, %rax
	salq	$2, %rax
	addq	%rax, %rcx
	leaq	28(%rbp), %rax
	movq	%rax, %rdx
	call	push
	.loc 1 142 0
	leaq	.LC3(%rip), %rcx
	call	puts
	.loc 1 143 0
	movq	8(%rbp), %rax
	movq	208(%rax), %rax
	movq	%rax, 8(%rbp)
	.loc 1 144 0
	jmp	.L4
.L19:
	.loc 1 146 0
	movq	8(%rbp), %rax
	addq	$104, %rax
	leaq	.LC32(%rip), %rdx
	movq	%rax, %rcx
	call	strcmp
	testl	%eax, %eax
	jne	.L20
	.loc 1 149 0
	leaq	28(%rbp), %rax
	movq	%rax, %rcx
	call	pop
	.loc 1 150 0
	movl	28(%rbp), %eax
	leaq	464(%rbp), %rcx
	movslq	%eax, %rdx
	movq	%rdx, %rax
	salq	$2, %rax
	addq	%rdx, %rax
	leaq	0(,%rax,4), %rdx
	addq	%rdx, %rax
	salq	$2, %rax
	addq	%rcx, %rax
	leaq	.LC33(%rip), %rdx
	movq	%rax, %rcx
	call	strcmp
	testl	%eax, %eax
	jne	.L21
	.loc 1 152 0
	movq	8(%rbp), %rax
	addq	$104, %rax
	movq	%rax, %rdx
	leaq	.LC34(%rip), %rcx
	call	printf
	.loc 1 153 0
	leaq	.LC3(%rip), %rcx
	call	puts
	.loc 1 154 0
	movq	8(%rbp), %rax
	movq	208(%rax), %rax
	movq	%rax, 8(%rbp)
	.loc 1 155 0
	movl	28(%rbp), %eax
	addl	$1, %eax
	movl	%eax, 28(%rbp)
	.loc 1 156 0
	jmp	.L4
.L21:
	.loc 1 158 0
	leaq	.LC35(%rip), %rcx
	call	puts
	.loc 1 159 0
	movq	8(%rbp), %rax
	leaq	104(%rax), %r8
	movl	28(%rbp), %eax
	leaq	464(%rbp), %rcx
	movslq	%eax, %rdx
	movq	%rdx, %rax
	salq	$2, %rax
	addq	%rdx, %rax
	leaq	0(,%rax,4), %rdx
	addq	%rdx, %rax
	salq	$2, %rax
	addq	%rax, %rcx
	leaq	28(%rbp), %rax
	movq	%rax, %rdx
	call	push
	.loc 1 160 0
	leaq	.LC3(%rip), %rcx
	call	puts
	.loc 1 161 0
	movq	8(%rbp), %rax
	movq	208(%rax), %rax
	movq	%rax, 8(%rbp)
	.loc 1 162 0
	jmp	.L4
.L20:
	.loc 1 164 0
	movq	8(%rbp), %rax
	addq	$104, %rax
	leaq	.LC36(%rip), %rdx
	movq	%rax, %rcx
	call	strcmp
	testl	%eax, %eax
	jne	.L22
	.loc 1 165 0
	leaq	.LC37(%rip), %rcx
	call	puts
	.loc 1 166 0
	movq	8(%rbp), %rax
	leaq	104(%rax), %r8
	movl	28(%rbp), %eax
	leaq	464(%rbp), %rcx
	movslq	%eax, %rdx
	movq	%rdx, %rax
	salq	$2, %rax
	addq	%rdx, %rax
	leaq	0(,%rax,4), %rdx
	addq	%rdx, %rax
	salq	$2, %rax
	addq	%rax, %rcx
	leaq	28(%rbp), %rax
	movq	%rax, %rdx
	call	push
	.loc 1 167 0
	leaq	.LC3(%rip), %rcx
	call	puts
	.loc 1 168 0
	movq	8(%rbp), %rax
	movq	208(%rax), %rax
	movq	%rax, 8(%rbp)
	.loc 1 169 0
	jmp	.L4
.L22:
	.loc 1 171 0
	movq	8(%rbp), %rax
	addq	$104, %rax
	leaq	.LC38(%rip), %rdx
	movq	%rax, %rcx
	call	strcmp
	testl	%eax, %eax
	jne	.L23
	.loc 1 172 0
	leaq	.LC39(%rip), %rcx
	call	puts
	.loc 1 173 0
	movq	8(%rbp), %rax
	leaq	104(%rax), %r8
	movl	28(%rbp), %eax
	leaq	464(%rbp), %rcx
	movslq	%eax, %rdx
	movq	%rdx, %rax
	salq	$2, %rax
	addq	%rdx, %rax
	leaq	0(,%rax,4), %rdx
	addq	%rdx, %rax
	salq	$2, %rax
	addq	%rax, %rcx
	leaq	28(%rbp), %rax
	movq	%rax, %rdx
	call	push
	.loc 1 174 0
	leaq	.LC3(%rip), %rcx
	call	puts
	.loc 1 175 0
	movq	8(%rbp), %rax
	movq	208(%rax), %rax
	movq	%rax, 8(%rbp)
	.loc 1 176 0
	jmp	.L4
.L23:
	.loc 1 178 0
	movq	8(%rbp), %rax
	addq	$104, %rax
	leaq	.LC40(%rip), %rdx
	movq	%rax, %rcx
	call	strcmp
	testl	%eax, %eax
	jne	.L24
	.loc 1 179 0
	leaq	.LC41(%rip), %rcx
	call	puts
	.loc 1 180 0
	movq	8(%rbp), %rax
	leaq	104(%rax), %r8
	movl	28(%rbp), %eax
	leaq	464(%rbp), %rcx
	movslq	%eax, %rdx
	movq	%rdx, %rax
	salq	$2, %rax
	addq	%rdx, %rax
	leaq	0(,%rax,4), %rdx
	addq	%rdx, %rax
	salq	$2, %rax
	addq	%rax, %rcx
	leaq	28(%rbp), %rax
	movq	%rax, %rdx
	call	push
	.loc 1 181 0
	leaq	.LC3(%rip), %rcx
	call	puts
	.loc 1 182 0
	movq	8(%rbp), %rax
	movq	208(%rax), %rax
	movq	%rax, 8(%rbp)
	.loc 1 183 0
	jmp	.L4
.L24:
	.loc 1 185 0
	movq	8(%rbp), %rax
	addq	$104, %rax
	leaq	.LC42(%rip), %rdx
	movq	%rax, %rcx
	call	strcmp
	testl	%eax, %eax
	jne	.L25
	.loc 1 186 0
	leaq	.LC43(%rip), %rcx
	call	puts
	.loc 1 187 0
	movq	8(%rbp), %rax
	leaq	104(%rax), %r8
	movl	28(%rbp), %eax
	leaq	464(%rbp), %rcx
	movslq	%eax, %rdx
	movq	%rdx, %rax
	salq	$2, %rax
	addq	%rdx, %rax
	leaq	0(,%rax,4), %rdx
	addq	%rdx, %rax
	salq	$2, %rax
	addq	%rax, %rcx
	leaq	28(%rbp), %rax
	movq	%rax, %rdx
	call	push
	.loc 1 188 0
	leaq	.LC3(%rip), %rcx
	call	puts
	.loc 1 189 0
	movq	8(%rbp), %rax
	movq	208(%rax), %rax
	movq	%rax, 8(%rbp)
	.loc 1 190 0
	jmp	.L4
.L25:
	.loc 1 192 0
	movq	8(%rbp), %rax
	addq	$104, %rax
	leaq	.LC44(%rip), %rdx
	movq	%rax, %rcx
	call	strcmp
	testl	%eax, %eax
	jne	.L26
	.loc 1 193 0
	leaq	.LC45(%rip), %rcx
	call	puts
	.loc 1 194 0
	movl	$1, 40(%rbp)
	.loc 1 195 0
	leaq	.LC3(%rip), %rcx
	call	puts
	.loc 1 196 0
	movq	8(%rbp), %rax
	movq	208(%rax), %rax
	movq	%rax, 8(%rbp)
	.loc 1 197 0
	jmp	.L4
.L26:
	.loc 1 199 0
	movq	8(%rbp), %rax
	addq	$104, %rax
	leaq	.LC46(%rip), %rdx
	movq	%rax, %rcx
	call	strcmp
	testl	%eax, %eax
	jne	.L27
	.loc 1 200 0
	leaq	.LC47(%rip), %rcx
	call	puts
	.loc 1 201 0
	movq	8(%rbp), %rax
	leaq	104(%rax), %r8
	movl	28(%rbp), %eax
	leaq	464(%rbp), %rcx
	movslq	%eax, %rdx
	movq	%rdx, %rax
	salq	$2, %rax
	addq	%rdx, %rax
	leaq	0(,%rax,4), %rdx
	addq	%rdx, %rax
	salq	$2, %rax
	addq	%rax, %rcx
	leaq	28(%rbp), %rax
	movq	%rax, %rdx
	call	push
	.loc 1 202 0
	leaq	.LC3(%rip), %rcx
	call	puts
	.loc 1 203 0
	movq	8(%rbp), %rax
	movq	208(%rax), %rax
	movq	%rax, 8(%rbp)
	.loc 1 204 0
	jmp	.L4
.L27:
	.loc 1 206 0
	movq	8(%rbp), %rax
	addq	$104, %rax
	leaq	.LC48(%rip), %rdx
	movq	%rax, %rcx
	call	strcmp
	testl	%eax, %eax
	jne	.L28
	.loc 1 207 0
	leaq	.LC49(%rip), %rcx
	call	puts
	.loc 1 208 0
	movq	8(%rbp), %rax
	leaq	104(%rax), %r8
	movl	28(%rbp), %eax
	leaq	464(%rbp), %rcx
	movslq	%eax, %rdx
	movq	%rdx, %rax
	salq	$2, %rax
	addq	%rdx, %rax
	leaq	0(,%rax,4), %rdx
	addq	%rdx, %rax
	salq	$2, %rax
	addq	%rax, %rcx
	leaq	28(%rbp), %rax
	movq	%rax, %rdx
	call	push
	.loc 1 209 0
	leaq	.LC3(%rip), %rcx
	call	puts
	.loc 1 210 0
	movq	8(%rbp), %rax
	movq	208(%rax), %rax
	movq	%rax, 8(%rbp)
	.loc 1 211 0
	jmp	.L4
.L28:
	.loc 1 213 0
	movq	8(%rbp), %rax
	addq	$104, %rax
	leaq	.LC50(%rip), %rdx
	movq	%rax, %rcx
	call	strcmp
	testl	%eax, %eax
	jne	.L29
	.loc 1 214 0
	leaq	.LC51(%rip), %rcx
	call	puts
	.loc 1 215 0
	movq	8(%rbp), %rax
	leaq	104(%rax), %r8
	movl	28(%rbp), %eax
	leaq	464(%rbp), %rcx
	movslq	%eax, %rdx
	movq	%rdx, %rax
	salq	$2, %rax
	addq	%rdx, %rax
	leaq	0(,%rax,4), %rdx
	addq	%rdx, %rax
	salq	$2, %rax
	addq	%rax, %rcx
	leaq	28(%rbp), %rax
	movq	%rax, %rdx
	call	push
	.loc 1 216 0
	leaq	.LC3(%rip), %rcx
	call	puts
	.loc 1 217 0
	movq	8(%rbp), %rax
	movq	208(%rax), %rax
	movq	%rax, 8(%rbp)
	.loc 1 218 0
	jmp	.L4
.L29:
	.loc 1 220 0
	movq	8(%rbp), %rax
	addq	$104, %rax
	leaq	.LC52(%rip), %rdx
	movq	%rax, %rcx
	call	strcmp
	testl	%eax, %eax
	jne	.L30
	.loc 1 221 0
	leaq	.LC53(%rip), %rcx
	call	puts
	.loc 1 222 0
	movq	8(%rbp), %rax
	leaq	104(%rax), %r8
	movl	28(%rbp), %eax
	leaq	464(%rbp), %rcx
	movslq	%eax, %rdx
	movq	%rdx, %rax
	salq	$2, %rax
	addq	%rdx, %rax
	leaq	0(,%rax,4), %rdx
	addq	%rdx, %rax
	salq	$2, %rax
	addq	%rax, %rcx
	leaq	28(%rbp), %rax
	movq	%rax, %rdx
	call	push
	.loc 1 223 0
	leaq	.LC3(%rip), %rcx
	call	puts
	.loc 1 224 0
	movq	8(%rbp), %rax
	movq	208(%rax), %rax
	movq	%rax, 8(%rbp)
	.loc 1 225 0
	jmp	.L4
.L30:
	.loc 1 227 0
	movq	8(%rbp), %rax
	addq	$104, %rax
	leaq	.LC54(%rip), %rdx
	movq	%rax, %rcx
	call	strcmp
	testl	%eax, %eax
	jne	.L31
	.loc 1 228 0
	leaq	.LC55(%rip), %rcx
	call	puts
	.loc 1 229 0
	movq	8(%rbp), %rax
	leaq	104(%rax), %r8
	movl	28(%rbp), %eax
	leaq	464(%rbp), %rcx
	movslq	%eax, %rdx
	movq	%rdx, %rax
	salq	$2, %rax
	addq	%rdx, %rax
	leaq	0(,%rax,4), %rdx
	addq	%rdx, %rax
	salq	$2, %rax
	addq	%rax, %rcx
	leaq	28(%rbp), %rax
	movq	%rax, %rdx
	call	push
	.loc 1 230 0
	leaq	.LC3(%rip), %rcx
	call	puts
	.loc 1 231 0
	movq	8(%rbp), %rax
	movq	208(%rax), %rax
	movq	%rax, 8(%rbp)
	.loc 1 232 0
	movl	$1, 36(%rbp)
	.loc 1 233 0
	jmp	.L4
.L31:
	.loc 1 235 0
	movq	8(%rbp), %rax
	addq	$104, %rax
	leaq	.LC56(%rip), %rdx
	movq	%rax, %rcx
	call	strcmp
	testl	%eax, %eax
	jne	.L32
	.loc 1 236 0
	leaq	.LC57(%rip), %rcx
	call	puts
	.loc 1 237 0
	movq	8(%rbp), %rax
	leaq	104(%rax), %r8
	movl	28(%rbp), %eax
	leaq	464(%rbp), %rcx
	movslq	%eax, %rdx
	movq	%rdx, %rax
	salq	$2, %rax
	addq	%rdx, %rax
	leaq	0(,%rax,4), %rdx
	addq	%rdx, %rax
	salq	$2, %rax
	addq	%rax, %rcx
	leaq	28(%rbp), %rax
	movq	%rax, %rdx
	call	push
	.loc 1 238 0
	leaq	.LC3(%rip), %rcx
	call	puts
	.loc 1 239 0
	movq	8(%rbp), %rax
	movq	208(%rax), %rax
	movq	%rax, 8(%rbp)
	.loc 1 240 0
	movl	$1, 36(%rbp)
	.loc 1 241 0
	jmp	.L4
.L32:
	.loc 1 243 0
	movq	8(%rbp), %rax
	addq	$104, %rax
	leaq	.LC58(%rip), %rdx
	movq	%rax, %rcx
	call	strcmp
	testl	%eax, %eax
	jne	.L33
	.loc 1 244 0
	leaq	.LC59(%rip), %rcx
	call	puts
	.loc 1 245 0
	movq	8(%rbp), %rax
	leaq	104(%rax), %r8
	movl	28(%rbp), %eax
	leaq	464(%rbp), %rcx
	movslq	%eax, %rdx
	movq	%rdx, %rax
	salq	$2, %rax
	addq	%rdx, %rax
	leaq	0(,%rax,4), %rdx
	addq	%rdx, %rax
	salq	$2, %rax
	addq	%rax, %rcx
	leaq	28(%rbp), %rax
	movq	%rax, %rdx
	call	push
	.loc 1 246 0
	leaq	.LC3(%rip), %rcx
	call	puts
	.loc 1 247 0
	movq	8(%rbp), %rax
	movq	208(%rax), %rax
	movq	%rax, 8(%rbp)
	.loc 1 248 0
	movl	$1, 36(%rbp)
	.loc 1 249 0
	jmp	.L4
.L33:
	.loc 1 251 0
	movq	8(%rbp), %rax
	addq	$104, %rax
	leaq	.LC60(%rip), %rdx
	movq	%rax, %rcx
	call	strcmp
	testl	%eax, %eax
	jne	.L34
	.loc 1 252 0
	leaq	.LC61(%rip), %rcx
	call	puts
	.loc 1 253 0
	movq	8(%rbp), %rax
	leaq	104(%rax), %r8
	movl	28(%rbp), %eax
	leaq	464(%rbp), %rcx
	movslq	%eax, %rdx
	movq	%rdx, %rax
	salq	$2, %rax
	addq	%rdx, %rax
	leaq	0(,%rax,4), %rdx
	addq	%rdx, %rax
	salq	$2, %rax
	addq	%rax, %rcx
	leaq	28(%rbp), %rax
	movq	%rax, %rdx
	call	push
	.loc 1 254 0
	leaq	.LC3(%rip), %rcx
	call	puts
	.loc 1 255 0
	movq	8(%rbp), %rax
	movq	208(%rax), %rax
	movq	%rax, 8(%rbp)
	.loc 1 256 0
	movl	$1, 36(%rbp)
	.loc 1 257 0
	jmp	.L4
.L34:
	.loc 1 259 0
	movq	8(%rbp), %rax
	addq	$104, %rax
	leaq	.LC62(%rip), %rdx
	movq	%rax, %rcx
	call	strcmp
	testl	%eax, %eax
	jne	.L35
	.loc 1 260 0
	leaq	.LC63(%rip), %rcx
	call	puts
	.loc 1 261 0
	movq	8(%rbp), %rax
	leaq	104(%rax), %r8
	movl	28(%rbp), %eax
	leaq	464(%rbp), %rcx
	movslq	%eax, %rdx
	movq	%rdx, %rax
	salq	$2, %rax
	addq	%rdx, %rax
	leaq	0(,%rax,4), %rdx
	addq	%rdx, %rax
	salq	$2, %rax
	addq	%rax, %rcx
	leaq	28(%rbp), %rax
	movq	%rax, %rdx
	call	push
	.loc 1 262 0
	leaq	.LC3(%rip), %rcx
	call	puts
	.loc 1 263 0
	movq	8(%rbp), %rax
	movq	208(%rax), %rax
	movq	%rax, 8(%rbp)
	.loc 1 264 0
	movl	$1, 36(%rbp)
	.loc 1 265 0
	jmp	.L4
.L35:
	.loc 1 267 0
	movq	8(%rbp), %rax
	addq	$104, %rax
	leaq	.LC64(%rip), %rdx
	movq	%rax, %rcx
	call	strcmp
	testl	%eax, %eax
	jne	.L36
	.loc 1 268 0
	leaq	.LC65(%rip), %rcx
	call	puts
	.loc 1 269 0
	movq	8(%rbp), %rax
	leaq	104(%rax), %r8
	movl	28(%rbp), %eax
	leaq	464(%rbp), %rcx
	movslq	%eax, %rdx
	movq	%rdx, %rax
	salq	$2, %rax
	addq	%rdx, %rax
	leaq	0(,%rax,4), %rdx
	addq	%rdx, %rax
	salq	$2, %rax
	addq	%rax, %rcx
	leaq	28(%rbp), %rax
	movq	%rax, %rdx
	call	push
	.loc 1 270 0
	leaq	.LC3(%rip), %rcx
	call	puts
	.loc 1 271 0
	movq	8(%rbp), %rax
	movq	208(%rax), %rax
	movq	%rax, 8(%rbp)
	.loc 1 272 0
	movl	$1, 36(%rbp)
	.loc 1 273 0
	jmp	.L4
.L36:
	.loc 1 275 0
	movq	8(%rbp), %rax
	addq	$104, %rax
	leaq	.LC66(%rip), %rdx
	movq	%rax, %rcx
	call	strcmp
	testl	%eax, %eax
	jne	.L37
	.loc 1 276 0
	leaq	.LC67(%rip), %rcx
	call	puts
	.loc 1 277 0
	movq	8(%rbp), %rax
	leaq	104(%rax), %r8
	movl	28(%rbp), %eax
	leaq	464(%rbp), %rcx
	movslq	%eax, %rdx
	movq	%rdx, %rax
	salq	$2, %rax
	addq	%rdx, %rax
	leaq	0(,%rax,4), %rdx
	addq	%rdx, %rax
	salq	$2, %rax
	addq	%rax, %rcx
	leaq	28(%rbp), %rax
	movq	%rax, %rdx
	call	push
	.loc 1 278 0
	leaq	.LC3(%rip), %rcx
	call	puts
	.loc 1 279 0
	movq	8(%rbp), %rax
	movq	208(%rax), %rax
	movq	%rax, 8(%rbp)
	.loc 1 280 0
	jmp	.L4
.L37:
	.loc 1 282 0
	movq	8(%rbp), %rax
	addq	$104, %rax
	leaq	.LC68(%rip), %rdx
	movq	%rax, %rcx
	call	strcmp
	testl	%eax, %eax
	jne	.L38
	.loc 1 283 0
	leaq	.LC69(%rip), %rcx
	call	puts
	.loc 1 284 0
	movq	8(%rbp), %rax
	leaq	104(%rax), %r8
	movl	28(%rbp), %eax
	leaq	464(%rbp), %rcx
	movslq	%eax, %rdx
	movq	%rdx, %rax
	salq	$2, %rax
	addq	%rdx, %rax
	leaq	0(,%rax,4), %rdx
	addq	%rdx, %rax
	salq	$2, %rax
	addq	%rax, %rcx
	leaq	28(%rbp), %rax
	movq	%rax, %rdx
	call	push
	.loc 1 285 0
	leaq	.LC3(%rip), %rcx
	call	puts
	.loc 1 286 0
	movq	8(%rbp), %rax
	movq	208(%rax), %rax
	movq	%rax, 8(%rbp)
	.loc 1 287 0
	jmp	.L4
.L38:
	.loc 1 289 0
	movq	8(%rbp), %rax
	addq	$104, %rax
	leaq	.LC70(%rip), %rdx
	movq	%rax, %rcx
	call	strcmp
	testl	%eax, %eax
	jne	.L39
	.loc 1 290 0
	leaq	.LC71(%rip), %rcx
	call	puts
	.loc 1 291 0
	movq	8(%rbp), %rax
	leaq	104(%rax), %r8
	movl	28(%rbp), %eax
	leaq	464(%rbp), %rcx
	movslq	%eax, %rdx
	movq	%rdx, %rax
	salq	$2, %rax
	addq	%rdx, %rax
	leaq	0(,%rax,4), %rdx
	addq	%rdx, %rax
	salq	$2, %rax
	addq	%rax, %rcx
	leaq	28(%rbp), %rax
	movq	%rax, %rdx
	call	push
	.loc 1 292 0
	leaq	.LC3(%rip), %rcx
	call	puts
	.loc 1 293 0
	movq	8(%rbp), %rax
	movq	208(%rax), %rax
	movq	%rax, 8(%rbp)
	.loc 1 294 0
	jmp	.L4
.L39:
	.loc 1 296 0
	movq	8(%rbp), %rax
	addq	$104, %rax
	leaq	.LC72(%rip), %rdx
	movq	%rax, %rcx
	call	strcmp
	testl	%eax, %eax
	jne	.L40
	.loc 1 297 0
	leaq	.LC73(%rip), %rcx
	call	puts
	.loc 1 298 0
	movq	8(%rbp), %rax
	leaq	104(%rax), %r8
	movl	28(%rbp), %eax
	leaq	464(%rbp), %rcx
	movslq	%eax, %rdx
	movq	%rdx, %rax
	salq	$2, %rax
	addq	%rdx, %rax
	leaq	0(,%rax,4), %rdx
	addq	%rdx, %rax
	salq	$2, %rax
	addq	%rax, %rcx
	leaq	28(%rbp), %rax
	movq	%rax, %rdx
	call	push
	.loc 1 299 0
	leaq	.LC3(%rip), %rcx
	call	puts
	.loc 1 300 0
	movq	8(%rbp), %rax
	movq	208(%rax), %rax
	movq	%rax, 8(%rbp)
	.loc 1 301 0
	jmp	.L4
.L40:
	.loc 1 303 0
	movq	8(%rbp), %rax
	addq	$104, %rax
	leaq	.LC74(%rip), %rdx
	movq	%rax, %rcx
	call	strcmp
	testl	%eax, %eax
	jne	.L41
	.loc 1 304 0
	leaq	.LC75(%rip), %rcx
	call	puts
	.loc 1 305 0
	movq	8(%rbp), %rax
	leaq	104(%rax), %r8
	movl	28(%rbp), %eax
	leaq	464(%rbp), %rcx
	movslq	%eax, %rdx
	movq	%rdx, %rax
	salq	$2, %rax
	addq	%rdx, %rax
	leaq	0(,%rax,4), %rdx
	addq	%rdx, %rax
	salq	$2, %rax
	addq	%rax, %rcx
	leaq	28(%rbp), %rax
	movq	%rax, %rdx
	call	push
	.loc 1 306 0
	leaq	.LC3(%rip), %rcx
	call	puts
	.loc 1 307 0
	movq	8(%rbp), %rax
	movq	208(%rax), %rax
	movq	%rax, 8(%rbp)
	.loc 1 308 0
	jmp	.L4
.L41:
	.loc 1 310 0
	movq	8(%rbp), %rax
	addq	$104, %rax
	leaq	.LC33(%rip), %rdx
	movq	%rax, %rcx
	call	strcmp
	testl	%eax, %eax
	jne	.L42
	.loc 1 311 0
	leaq	.LC76(%rip), %rcx
	call	puts
	.loc 1 312 0
	movq	8(%rbp), %rax
	leaq	104(%rax), %r8
	movl	28(%rbp), %eax
	leaq	464(%rbp), %rcx
	movslq	%eax, %rdx
	movq	%rdx, %rax
	salq	$2, %rax
	addq	%rdx, %rax
	leaq	0(,%rax,4), %rdx
	addq	%rdx, %rax
	salq	$2, %rax
	addq	%rax, %rcx
	leaq	28(%rbp), %rax
	movq	%rax, %rdx
	call	push
	.loc 1 313 0
	leaq	.LC3(%rip), %rcx
	call	puts
	.loc 1 314 0
	movq	8(%rbp), %rax
	movq	208(%rax), %rax
	movq	%rax, 8(%rbp)
	.loc 1 315 0
	jmp	.L4
.L42:
	.loc 1 317 0
	movq	8(%rbp), %rax
	addq	$104, %rax
	leaq	.LC77(%rip), %rdx
	movq	%rax, %rcx
	call	strcmp
	testl	%eax, %eax
	jne	.L43
	.loc 1 318 0
	leaq	.LC78(%rip), %rcx
	call	puts
	.loc 1 319 0
	movq	8(%rbp), %rax
	leaq	104(%rax), %r8
	movl	28(%rbp), %eax
	leaq	464(%rbp), %rcx
	movslq	%eax, %rdx
	movq	%rdx, %rax
	salq	$2, %rax
	addq	%rdx, %rax
	leaq	0(,%rax,4), %rdx
	addq	%rdx, %rax
	salq	$2, %rax
	addq	%rax, %rcx
	leaq	28(%rbp), %rax
	movq	%rax, %rdx
	call	push
	.loc 1 320 0
	leaq	.LC3(%rip), %rcx
	call	puts
	.loc 1 321 0
	movq	8(%rbp), %rax
	movq	208(%rax), %rax
	movq	%rax, 8(%rbp)
	.loc 1 322 0
	jmp	.L4
.L43:
	.loc 1 324 0
	movq	8(%rbp), %rax
	addq	$104, %rax
	leaq	.LC79(%rip), %rdx
	movq	%rax, %rcx
	call	strcmp
	testl	%eax, %eax
	jne	.L44
	.loc 1 325 0
	leaq	.LC80(%rip), %rcx
	call	puts
	.loc 1 329 0
	leaq	.LC3(%rip), %rcx
	call	puts
	.loc 1 330 0
	movq	8(%rbp), %rax
	movq	208(%rax), %rax
	movq	%rax, 8(%rbp)
	.loc 1 331 0
	jmp	.L4
.L44:
	.loc 1 333 0
	movq	8(%rbp), %rax
	addq	$104, %rax
	leaq	.LC81(%rip), %rdx
	movq	%rax, %rcx
	call	strcmp
	testl	%eax, %eax
	jne	.L45
	.loc 1 334 0
	leaq	.LC82(%rip), %rcx
	call	puts
	.loc 1 335 0
	movq	8(%rbp), %rax
	leaq	104(%rax), %r8
	movl	28(%rbp), %eax
	leaq	464(%rbp), %rcx
	movslq	%eax, %rdx
	movq	%rdx, %rax
	salq	$2, %rax
	addq	%rdx, %rax
	leaq	0(,%rax,4), %rdx
	addq	%rdx, %rax
	salq	$2, %rax
	addq	%rax, %rcx
	leaq	28(%rbp), %rax
	movq	%rax, %rdx
	call	push
	.loc 1 336 0
	movl	$1, 48(%rbp)
	.loc 1 337 0
	leaq	.LC3(%rip), %rcx
	call	puts
	.loc 1 338 0
	movq	8(%rbp), %rax
	movq	208(%rax), %rax
	movq	%rax, 8(%rbp)
	.loc 1 339 0
	jmp	.L4
.L45:
	.loc 1 343 0
	movq	8(%rbp), %rax
	addq	$104, %rax
	movq	%rax, %rdx
	leaq	.LC83(%rip), %rcx
	call	printf
	.loc 1 345 0
	movq	8(%rbp), %rax
	addq	$104, %rax
	leaq	.LC84(%rip), %rdx
	movq	%rax, %rcx
	call	strcmp
	testl	%eax, %eax
	jne	.L46
.LBB3:
	.loc 1 346 0
	leaq	.LC85(%rip), %rcx
	call	puts
	.loc 1 347 0
	leaq	20496(%rbp), %rax
	movq	%rax, %rdx
	leaq	.LC86(%rip), %rcx
	call	printf
	.loc 1 349 0
	movq	8(%rbp), %rax
	movq	%rax, 392(%rbp)
	.loc 1 350 0
	movl	448(%rbp), %eax
	cmpl	$1, %eax
	jne	.L47
	.loc 1 350 0 is_stmt 0 discriminator 1
	leaq	20464(%rbp), %rax
	movl	$1852399981, (%rax)
	movb	$0, 4(%rax)
	jmp	.L48
.L47:
	.loc 1 350 0 discriminator 2
	leaq	20464(%rbp), %rax
	movl	$1651469415, (%rax)
	movw	$27745, 4(%rax)
	movb	$0, 6(%rax)
.L48:
	.loc 1 351 0 is_stmt 1
	movq	392(%rbp), %rax
	leaq	104(%rax), %rcx
	leaq	20496(%rbp), %rax
	movq	%rax, %rdx
	call	strcpy
	.loc 1 352 0
	movq	392(%rbp), %rax
	addq	$4, %rax
	movl	$1970435187, (%rax)
	movw	$29795, 4(%rax)
	movb	$0, 6(%rax)
	.loc 1 353 0
	movq	-8(%rbp), %rcx
	leaq	20464(%rbp), %rdx
	movq	392(%rbp), %rax
	movq	%rcx, %r8
	movq	%rax, %rcx
	call	InsertSymbolTable
	.loc 1 354 0
	movl	$1, 432(%rbp)
	.loc 1 355 0
	movl	$0, %r8d
	movl	$0, %edx
	movl	$13, %ecx
	call	type_create
	movq	%rax, 400(%rbp)
	.loc 1 356 0
	movq	400(%rbp), %rdx
	leaq	20496(%rbp), %rax
	movl	$0, %r9d
	movl	$0, %r8d
	movq	%rax, %rcx
	call	decl_create
	movq	%rax, 408(%rbp)
	.loc 1 357 0
	movq	408(%rbp), %rax
	movl	$-1, 64(%rsp)
	movq	$0, 56(%rsp)
	movq	$0, 48(%rsp)
	movq	$0, 40(%rsp)
	movq	$0, 32(%rsp)
	movl	$0, %r9d
	movl	$0, %r8d
	movq	%rax, %rdx
	movl	$0, %ecx
	call	stmt_create
	movq	%rax, 416(%rbp)
	.loc 1 358 0
	movq	416(%rbp), %rdx
	movq	0(%rbp), %rax
	movl	$0, %r9d
	movq	%rdx, %r8
	movl	$0, %edx
	movq	%rax, %rcx
	call	push_commandList
	.loc 1 359 0
	leaq	.LC3(%rip), %rcx
	call	puts
	.loc 1 360 0
	movq	8(%rbp), %rax
	movq	208(%rax), %rax
	movq	%rax, 8(%rbp)
	jmp	.L4
.L46:
.LBE3:
	.loc 1 364 0
	movq	8(%rbp), %rax
	addq	$104, %rax
	leaq	.LC87(%rip), %rdx
	movq	%rax, %rcx
	call	strcmp
	testl	%eax, %eax
	jne	.L49
.LBB4:
	.loc 1 365 0
	leaq	.LC88(%rip), %rcx
	call	puts
	.loc 1 366 0
	leaq	20496(%rbp), %rax
	movq	%rax, %rdx
	leaq	.LC89(%rip), %rcx
	call	printf
	.loc 1 368 0
	movq	8(%rbp), %rax
	movq	%rax, 360(%rbp)
	.loc 1 369 0
	movl	448(%rbp), %eax
	cmpl	$1, %eax
	jne	.L50
	.loc 1 369 0 is_stmt 0 discriminator 1
	leaq	20464(%rbp), %rax
	movl	$1852399981, (%rax)
	movb	$0, 4(%rax)
	jmp	.L51
.L50:
	.loc 1 369 0 discriminator 2
	leaq	20464(%rbp), %rax
	movl	$1651469415, (%rax)
	movw	$27745, 4(%rax)
	movb	$0, 6(%rax)
.L51:
	.loc 1 370 0 is_stmt 1
	movq	360(%rbp), %rax
	leaq	104(%rax), %rcx
	leaq	20496(%rbp), %rax
	movq	%rax, %rdx
	call	strcpy
	.loc 1 371 0
	movq	360(%rbp), %rax
	addq	$4, %rax
	movl	$1836412517, (%rax)
	movb	$0, 4(%rax)
	.loc 1 372 0
	movq	-8(%rbp), %rcx
	leaq	20464(%rbp), %rdx
	movq	360(%rbp), %rax
	movq	%rcx, %r8
	movq	%rax, %rcx
	call	InsertSymbolTable
	.loc 1 373 0
	movl	$1, 440(%rbp)
	.loc 1 374 0
	movl	$0, %r8d
	movl	$0, %edx
	movl	$14, %ecx
	call	type_create
	movq	%rax, 368(%rbp)
	.loc 1 375 0
	movq	368(%rbp), %rdx
	leaq	20496(%rbp), %rax
	movl	$0, %r9d
	movl	$0, %r8d
	movq	%rax, %rcx
	call	decl_create
	movq	%rax, 376(%rbp)
	.loc 1 376 0
	movq	376(%rbp), %rax
	movl	$-1, 64(%rsp)
	movq	$0, 56(%rsp)
	movq	$0, 48(%rsp)
	movq	$0, 40(%rsp)
	movq	$0, 32(%rsp)
	movl	$0, %r9d
	movl	$0, %r8d
	movq	%rax, %rdx
	movl	$0, %ecx
	call	stmt_create
	movq	%rax, 384(%rbp)
	.loc 1 377 0
	movq	384(%rbp), %rdx
	movq	0(%rbp), %rax
	movl	$0, %r9d
	movq	%rdx, %r8
	movl	$0, %edx
	movq	%rax, %rcx
	call	push_commandList
	.loc 1 378 0
	leaq	.LC3(%rip), %rcx
	call	puts
	.loc 1 379 0
	movq	8(%rbp), %rax
	movq	208(%rax), %rax
	movq	%rax, 8(%rbp)
	jmp	.L4
.L49:
.LBE4:
	.loc 1 383 0
	movq	8(%rbp), %rax
	addq	$104, %rax
	leaq	.LC90(%rip), %rdx
	movq	%rax, %rcx
	call	strcmp
	testl	%eax, %eax
	jne	.L52
.LBB5:
	.loc 1 384 0
	leaq	.LC91(%rip), %rcx
	call	puts
	.loc 1 385 0
	leaq	20496(%rbp), %rax
	movq	%rax, %rdx
	leaq	.LC92(%rip), %rcx
	call	printf
	.loc 1 387 0
	movq	8(%rbp), %rax
	movq	%rax, 328(%rbp)
	.loc 1 388 0
	movl	448(%rbp), %eax
	cmpl	$1, %eax
	jne	.L53
	.loc 1 388 0 is_stmt 0 discriminator 1
	leaq	20464(%rbp), %rax
	movl	$1852399981, (%rax)
	movb	$0, 4(%rax)
	jmp	.L54
.L53:
	.loc 1 388 0 discriminator 2
	leaq	20464(%rbp), %rax
	movl	$1651469415, (%rax)
	movw	$27745, 4(%rax)
	movb	$0, 6(%rax)
.L54:
	.loc 1 389 0 is_stmt 1
	movq	328(%rbp), %rax
	leaq	104(%rax), %rcx
	leaq	20496(%rbp), %rax
	movq	%rax, %rdx
	call	strcpy
	.loc 1 390 0
	movq	328(%rbp), %rax
	addq	$4, %rax
	movl	$1869180533, (%rax)
	movw	$110, 4(%rax)
	.loc 1 391 0
	movq	-8(%rbp), %rcx
	leaq	20464(%rbp), %rdx
	movq	328(%rbp), %rax
	movq	%rcx, %r8
	movq	%rax, %rcx
	call	InsertSymbolTable
	.loc 1 392 0
	movl	$1, 436(%rbp)
	.loc 1 393 0
	movl	$0, %r8d
	movl	$0, %edx
	movl	$15, %ecx
	call	type_create
	movq	%rax, 336(%rbp)
	.loc 1 394 0
	movq	336(%rbp), %rdx
	leaq	20496(%rbp), %rax
	movl	$0, %r9d
	movl	$0, %r8d
	movq	%rax, %rcx
	call	decl_create
	movq	%rax, 344(%rbp)
	.loc 1 395 0
	movq	344(%rbp), %rax
	movl	$-1, 64(%rsp)
	movq	$0, 56(%rsp)
	movq	$0, 48(%rsp)
	movq	$0, 40(%rsp)
	movq	$0, 32(%rsp)
	movl	$0, %r9d
	movl	$0, %r8d
	movq	%rax, %rdx
	movl	$0, %ecx
	call	stmt_create
	movq	%rax, 352(%rbp)
	.loc 1 396 0
	movq	352(%rbp), %rdx
	movq	0(%rbp), %rax
	movl	$0, %r9d
	movq	%rdx, %r8
	movl	$0, %edx
	movq	%rax, %rcx
	call	push_commandList
	.loc 1 397 0
	leaq	.LC3(%rip), %rcx
	call	puts
	.loc 1 398 0
	movq	8(%rbp), %rax
	movq	208(%rax), %rax
	movq	%rax, 8(%rbp)
	jmp	.L4
.L52:
.LBE5:
	.loc 1 402 0
	movq	8(%rbp), %rax
	addq	$104, %rax
	leaq	.LC93(%rip), %rdx
	movq	%rax, %rcx
	call	strcmp
	testl	%eax, %eax
	jne	.L55
.LBB6:
	.loc 1 403 0
	leaq	.LC94(%rip), %rcx
	call	puts
	.loc 1 404 0
	movl	$1, 444(%rbp)
	.loc 1 405 0
	movl	$-1, 64(%rsp)
	movq	$0, 56(%rsp)
	movq	$0, 48(%rsp)
	movq	$0, 40(%rsp)
	movq	$0, 32(%rsp)
	movl	$0, %r9d
	movl	$0, %r8d
	movl	$0, %edx
	movl	$9, %ecx
	call	stmt_create
	movq	%rax, 320(%rbp)
	.loc 1 406 0
	movq	320(%rbp), %rdx
	movq	0(%rbp), %rax
	movl	$0, %r9d
	movq	%rdx, %r8
	movl	$0, %edx
	movq	%rax, %rcx
	call	push_commandList
	.loc 1 407 0
	leaq	.LC3(%rip), %rcx
	call	puts
	.loc 1 408 0
	movq	8(%rbp), %rax
	movq	208(%rax), %rax
	movq	%rax, 8(%rbp)
	.loc 1 409 0
	jmp	.L4
.L55:
.LBE6:
	.loc 1 412 0
	movq	8(%rbp), %rax
	addq	$104, %rax
	leaq	.LC95(%rip), %rdx
	movq	%rax, %rcx
	call	strcmp
	testl	%eax, %eax
	jne	.L56
.LBB7:
	.loc 1 413 0
	leaq	.LC96(%rip), %rcx
	call	puts
	.loc 1 414 0
	movl	$1, 452(%rbp)
	.loc 1 415 0
	movl	$-1, 64(%rsp)
	movq	$0, 56(%rsp)
	movq	$0, 48(%rsp)
	movq	$0, 40(%rsp)
	movq	$0, 32(%rsp)
	movl	$0, %r9d
	movl	$0, %r8d
	movl	$0, %edx
	movl	$10, %ecx
	call	stmt_create
	movq	%rax, 312(%rbp)
	.loc 1 416 0
	movq	312(%rbp), %rdx
	movq	0(%rbp), %rax
	movl	$0, %r9d
	movq	%rdx, %r8
	movl	$0, %edx
	movq	%rax, %rcx
	call	push_commandList
	.loc 1 417 0
	leaq	.LC3(%rip), %rcx
	call	puts
	.loc 1 418 0
	movq	8(%rbp), %rax
	movq	208(%rax), %rax
	movq	%rax, 8(%rbp)
	.loc 1 419 0
	jmp	.L4
.L56:
.LBE7:
	.loc 1 422 0
	movq	8(%rbp), %rax
	addq	$4, %rax
	leaq	.LC97(%rip), %rdx
	movq	%rax, %rcx
	call	strcmp
	testl	%eax, %eax
	jne	.L57
	.loc 1 423 0
	leaq	.LC98(%rip), %rcx
	call	puts
	.loc 1 424 0
	leaq	432(%rbp), %rax
	movq	%rax, %rcx
	call	ClearFlags
.L57:
	.loc 1 427 0
	movq	8(%rbp), %rax
	addq	$4, %rax
	leaq	.LC20(%rip), %rdx
	movq	%rax, %rcx
	call	strcmp
	testl	%eax, %eax
	jne	.L58
.LBB8:
	.loc 1 428 0
	movl	$0, 56(%rbp)
	.loc 1 429 0
	leaq	28(%rbp), %rax
	movq	%rax, %rcx
	call	pop
	.loc 1 430 0
	movl	28(%rbp), %eax
	leaq	464(%rbp), %rcx
	movslq	%eax, %rdx
	movq	%rdx, %rax
	salq	$2, %rax
	addq	%rdx, %rax
	leaq	0(,%rax,4), %rdx
	addq	%rdx, %rax
	salq	$2, %rax
	addq	%rcx, %rax
	leaq	.LC1(%rip), %rdx
	movq	%rax, %rcx
	call	strcmp
	testl	%eax, %eax
	jne	.L59
	.loc 1 431 0
	movl	$1, 56(%rbp)
	.loc 1 432 0
	movl	28(%rbp), %eax
	cltq
	movb	$0, 464(%rbp,%rax)
	.loc 1 433 0
	movq	-8(%rbp), %rdx
	movq	8(%rbp), %rax
	movq	%rdx, %r8
	leaq	.LC1(%rip), %rdx
	movq	%rax, %rcx
	call	InsertSymbolTable
	.loc 1 434 0
	movq	8(%rbp), %rax
	leaq	104(%rax), %rcx
	movq	0(%rbp), %rax
	movl	$1, %r8d
	movq	%rax, %rdx
	call	BuildSingleExprStatement
	jmp	.L58
.L59:
	.loc 1 436 0
	movl	28(%rbp), %eax
	leaq	464(%rbp), %rcx
	movslq	%eax, %rdx
	movq	%rdx, %rax
	salq	$2, %rax
	addq	%rdx, %rax
	leaq	0(,%rax,4), %rdx
	addq	%rdx, %rax
	salq	$2, %rax
	addq	%rcx, %rax
	leaq	.LC6(%rip), %rdx
	movq	%rax, %rcx
	call	strcmp
	testl	%eax, %eax
	jne	.L60
	.loc 1 437 0
	movl	$1, 56(%rbp)
	.loc 1 438 0
	movl	28(%rbp), %eax
	cltq
	movb	$0, 464(%rbp,%rax)
	.loc 1 439 0
	movq	-8(%rbp), %rdx
	movq	8(%rbp), %rax
	movq	%rdx, %r8
	leaq	.LC6(%rip), %rdx
	movq	%rax, %rcx
	call	InsertSymbolTable
	.loc 1 440 0
	movq	8(%rbp), %rax
	leaq	104(%rax), %rcx
	movq	0(%rbp), %rax
	movl	$2, %r8d
	movq	%rax, %rdx
	call	BuildSingleExprStatement
	jmp	.L58
.L60:
	.loc 1 442 0
	movl	28(%rbp), %eax
	leaq	464(%rbp), %rcx
	movslq	%eax, %rdx
	movq	%rdx, %rax
	salq	$2, %rax
	addq	%rdx, %rax
	leaq	0(,%rax,4), %rdx
	addq	%rdx, %rax
	salq	$2, %rax
	addq	%rcx, %rax
	leaq	.LC8(%rip), %rdx
	movq	%rax, %rcx
	call	strcmp
	testl	%eax, %eax
	jne	.L61
	.loc 1 443 0
	movl	$1, 56(%rbp)
	.loc 1 444 0
	movl	28(%rbp), %eax
	cltq
	movb	$0, 464(%rbp,%rax)
	.loc 1 445 0
	cmpl	$1, 40(%rbp)
	jne	.L62
.LBB9:
	.loc 1 447 0
	movl	$0, 40(%rbp)
	.loc 1 448 0
	movl	$-1, 64(%rsp)
	movq	$0, 56(%rsp)
	movq	$0, 48(%rsp)
	movq	$0, 40(%rsp)
	movq	$0, 32(%rsp)
	movl	$0, %r9d
	movl	$0, %r8d
	movl	$0, %edx
	movl	$8, %ecx
	call	stmt_create
	movq	%rax, 80(%rbp)
	.loc 1 449 0
	movq	80(%rbp), %rdx
	movq	0(%rbp), %rax
	movl	$0, %r9d
	movq	%rdx, %r8
	movl	$0, %edx
	movq	%rax, %rcx
	call	push_commandList
	.loc 1 450 0
	movq	8(%rbp), %rax
	leaq	104(%rax), %rcx
	movq	0(%rbp), %rax
	movl	$3, %r8d
	movq	%rax, %rdx
	call	BuildSingleExprStatement
.LBE9:
	jmp	.L58
.L62:
	.loc 1 453 0
	movq	8(%rbp), %rax
	leaq	104(%rax), %rcx
	movq	0(%rbp), %rax
	movl	$3, %r8d
	movq	%rax, %rdx
	call	BuildSingleExprStatement
	jmp	.L58
.L61:
	.loc 1 455 0
	movl	28(%rbp), %eax
	leaq	464(%rbp), %rcx
	movslq	%eax, %rdx
	movq	%rdx, %rax
	salq	$2, %rax
	addq	%rdx, %rax
	leaq	0(,%rax,4), %rdx
	addq	%rdx, %rax
	salq	$2, %rax
	addq	%rcx, %rax
	leaq	.LC20(%rip), %rdx
	movq	%rax, %rcx
	call	strcmp
	testl	%eax, %eax
	jne	.L64
	.loc 1 456 0
	movl	$1, 56(%rbp)
	.loc 1 457 0
	movl	28(%rbp), %eax
	cltq
	movb	$0, 464(%rbp,%rax)
	.loc 1 458 0
	leaq	28(%rbp), %rax
	movq	%rax, %rcx
	call	pop
	.loc 1 459 0
	movl	28(%rbp), %eax
	leaq	464(%rbp), %rcx
	movslq	%eax, %rdx
	movq	%rdx, %rax
	salq	$2, %rax
	addq	%rdx, %rax
	leaq	0(,%rax,4), %rdx
	addq	%rdx, %rax
	salq	$2, %rax
	leaq	(%rcx,%rax), %rdx
	leaq	20496(%rbp), %rax
	movq	%rax, %rcx
	call	strcpy
	.loc 1 460 0
	movl	28(%rbp), %eax
	cltq
	movb	$0, 464(%rbp,%rax)
	.loc 1 461 0
	leaq	28(%rbp), %rax
	movq	%rax, %rcx
	call	pop
	.loc 1 462 0
	movl	28(%rbp), %eax
	cltq
	movb	$0, 464(%rbp,%rax)
	.loc 1 463 0
	movq	8(%rbp), %rax
	leaq	104(%rax), %rcx
	leaq	20496(%rbp), %r8
	movq	0(%rbp), %rax
	movl	44(%rbp), %edx
	movl	%edx, 32(%rsp)
	movl	$5, %r9d
	movq	%rax, %rdx
	call	BuildDeclarationExprStatement
	jmp	.L58
.L64:
	.loc 1 466 0
	leaq	28(%rbp), %rax
	movq	%rax, %rcx
	call	empty
	testl	%eax, %eax
	jne	.L58
	.loc 1 466 0 is_stmt 0 discriminator 2
	cmpl	$0, 56(%rbp)
	jne	.L58
	.loc 1 467 0 is_stmt 1
	leaq	.LC99(%rip), %rcx
	call	puts
	.loc 1 468 0
	movq	8(%rbp), %rax
	addq	$104, %rax
	movq	%rax, %rdx
	leaq	.LC100(%rip), %rcx
	call	printf
	.loc 1 469 0
	movl	28(%rbp), %eax
	addl	$1, %eax
	movl	%eax, 28(%rbp)
	.loc 1 470 0
	movq	8(%rbp), %rax
	leaq	104(%rax), %r8
	movl	28(%rbp), %eax
	leaq	464(%rbp), %rcx
	movslq	%eax, %rdx
	movq	%rdx, %rax
	salq	$2, %rax
	addq	%rdx, %rax
	leaq	0(,%rax,4), %rdx
	addq	%rdx, %rax
	salq	$2, %rax
	addq	%rax, %rcx
	leaq	28(%rbp), %rax
	movq	%rax, %rdx
	call	push
.L58:
.LBE8:
	.loc 1 475 0
	movq	8(%rbp), %rax
	addq	$4, %rax
	leaq	.LC101(%rip), %rdx
	movq	%rax, %rcx
	call	strcmp
	testl	%eax, %eax
	jne	.L65
	.loc 1 476 0
	leaq	28(%rbp), %rax
	movq	%rax, %rcx
	call	pop
	.loc 1 477 0
	movl	28(%rbp), %eax
	leaq	464(%rbp), %rcx
	movslq	%eax, %rdx
	movq	%rdx, %rax
	salq	$2, %rax
	addq	%rdx, %rax
	leaq	0(,%rax,4), %rdx
	addq	%rdx, %rax
	salq	$2, %rax
	leaq	(%rcx,%rax), %rdx
	leaq	20496(%rbp), %rax
	movq	%rax, %rcx
	call	strcpy
	.loc 1 478 0
	leaq	28(%rbp), %rax
	movq	%rax, %rcx
	call	pop
	.loc 1 479 0
	movl	28(%rbp), %eax
	cltq
	movb	$0, 464(%rbp,%rax)
	.loc 1 480 0
	movq	8(%rbp), %rax
	leaq	104(%rax), %rcx
	leaq	20496(%rbp), %r8
	movq	0(%rbp), %rax
	movl	44(%rbp), %edx
	movl	%edx, 32(%rsp)
	movl	$1, %r9d
	movq	%rax, %rdx
	call	BuildDeclarationExprStatement
.L65:
	.loc 1 483 0
	movq	8(%rbp), %rax
	addq	$4, %rax
	movq	%rax, %rcx
	call	isNumberType
	cmpl	$1, %eax
	jne	.L66
.LBB10:
	.loc 1 484 0
	movl	$0, 60(%rbp)
	.loc 1 485 0
	leaq	28(%rbp), %rax
	movq	%rax, %rcx
	call	pop
	.loc 1 487 0
	movq	432(%rbp), %rax
	movq	440(%rbp), %rdx
	movq	%rax, -48(%rbp)
	movq	%rdx, -40(%rbp)
	movq	448(%rbp), %rax
	movq	%rax, -32(%rbp)
	leaq	-48(%rbp), %rax
	movq	%rax, %rcx
	call	CheckIfMemberOfStatement
	movl	%eax, 44(%rbp)
	.loc 1 488 0
	cmpl	$-1, 44(%rbp)
	je	.L67
	.loc 1 489 0
	movl	44(%rbp), %eax
	movl	%eax, %edx
	leaq	.LC102(%rip), %rcx
	call	printf
.L67:
	.loc 1 492 0
	movl	28(%rbp), %eax
	leaq	464(%rbp), %rcx
	movslq	%eax, %rdx
	movq	%rdx, %rax
	salq	$2, %rax
	addq	%rdx, %rax
	leaq	0(,%rax,4), %rdx
	addq	%rdx, %rax
	salq	$2, %rax
	addq	%rcx, %rax
	leaq	.LC8(%rip), %rdx
	movq	%rax, %rcx
	call	strcmp
	testl	%eax, %eax
	jne	.L68
	.loc 1 493 0
	movl	$1, 60(%rbp)
	.loc 1 494 0
	movl	28(%rbp), %eax
	cltq
	movb	$0, 464(%rbp,%rax)
	.loc 1 495 0
	movq	8(%rbp), %rax
	leaq	104(%rax), %rcx
	movq	0(%rbp), %rax
	movl	$3, %r8d
	movq	%rax, %rdx
	call	BuildSingleExprStatement
	jmp	.L66
.L68:
	.loc 1 497 0
	movl	28(%rbp), %eax
	leaq	464(%rbp), %rcx
	movslq	%eax, %rdx
	movq	%rdx, %rax
	salq	$2, %rax
	addq	%rdx, %rax
	leaq	0(,%rax,4), %rdx
	addq	%rdx, %rax
	salq	$2, %rax
	addq	%rcx, %rax
	leaq	.LC10(%rip), %rdx
	movq	%rax, %rcx
	call	strcmp
	testl	%eax, %eax
	jne	.L69
	.loc 1 498 0
	movl	$1, 60(%rbp)
	.loc 1 499 0
	movl	28(%rbp), %eax
	cltq
	movb	$0, 464(%rbp,%rax)
	.loc 1 500 0
	movq	8(%rbp), %rax
	leaq	104(%rax), %rcx
	movq	0(%rbp), %rax
	movl	$4, %r8d
	movq	%rax, %rdx
	call	BuildSingleExprStatement
	jmp	.L66
.L69:
	.loc 1 502 0
	movl	28(%rbp), %eax
	leaq	464(%rbp), %rcx
	movslq	%eax, %rdx
	movq	%rdx, %rax
	salq	$2, %rax
	addq	%rdx, %rax
	leaq	0(,%rax,4), %rdx
	addq	%rdx, %rax
	salq	$2, %rax
	addq	%rcx, %rax
	leaq	.LC22(%rip), %rdx
	movq	%rax, %rcx
	call	strcmp
	testl	%eax, %eax
	jne	.L70
	.loc 1 503 0
	movl	$1, 60(%rbp)
	.loc 1 504 0
	movl	28(%rbp), %eax
	cltq
	movb	$0, 464(%rbp,%rax)
	.loc 1 505 0
	leaq	28(%rbp), %rax
	movq	%rax, %rcx
	call	pop
	.loc 1 506 0
	movl	28(%rbp), %eax
	leaq	464(%rbp), %rcx
	movslq	%eax, %rdx
	movq	%rdx, %rax
	salq	$2, %rax
	addq	%rdx, %rax
	leaq	0(,%rax,4), %rdx
	addq	%rdx, %rax
	salq	$2, %rax
	leaq	(%rcx,%rax), %rdx
	leaq	20496(%rbp), %rax
	movq	%rax, %rcx
	call	strcpy
	.loc 1 507 0
	movl	28(%rbp), %eax
	cltq
	movb	$0, 464(%rbp,%rax)
	.loc 1 508 0
	leaq	28(%rbp), %rax
	movq	%rax, %rcx
	call	pop
	.loc 1 509 0
	movl	28(%rbp), %eax
	cltq
	movb	$0, 464(%rbp,%rax)
	.loc 1 510 0
	movq	8(%rbp), %rax
	leaq	104(%rax), %rcx
	leaq	20496(%rbp), %r8
	movq	0(%rbp), %rax
	movl	44(%rbp), %edx
	movl	%edx, 32(%rsp)
	movl	$2, %r9d
	movq	%rax, %rdx
	call	BuildDeclarationExprStatement
	jmp	.L66
.L70:
	.loc 1 512 0
	movl	28(%rbp), %eax
	leaq	464(%rbp), %rcx
	movslq	%eax, %rdx
	movq	%rdx, %rax
	salq	$2, %rax
	addq	%rdx, %rax
	leaq	0(,%rax,4), %rdx
	addq	%rdx, %rax
	salq	$2, %rax
	addq	%rcx, %rax
	leaq	.LC24(%rip), %rdx
	movq	%rax, %rcx
	call	strcmp
	testl	%eax, %eax
	jne	.L71
	.loc 1 513 0
	movl	$1, 60(%rbp)
	.loc 1 514 0
	movl	28(%rbp), %eax
	cltq
	movb	$0, 464(%rbp,%rax)
	.loc 1 515 0
	leaq	28(%rbp), %rax
	movq	%rax, %rcx
	call	pop
	.loc 1 516 0
	movl	28(%rbp), %eax
	leaq	464(%rbp), %rcx
	movslq	%eax, %rdx
	movq	%rdx, %rax
	salq	$2, %rax
	addq	%rdx, %rax
	leaq	0(,%rax,4), %rdx
	addq	%rdx, %rax
	salq	$2, %rax
	leaq	(%rcx,%rax), %rdx
	leaq	20496(%rbp), %rax
	movq	%rax, %rcx
	call	strcpy
	.loc 1 517 0
	movl	28(%rbp), %eax
	cltq
	movb	$0, 464(%rbp,%rax)
	.loc 1 518 0
	leaq	28(%rbp), %rax
	movq	%rax, %rcx
	call	pop
	.loc 1 519 0
	movl	28(%rbp), %eax
	cltq
	movb	$0, 464(%rbp,%rax)
	.loc 1 520 0
	movq	8(%rbp), %rax
	leaq	104(%rax), %rcx
	leaq	20496(%rbp), %r8
	movq	0(%rbp), %rax
	movl	44(%rbp), %edx
	movl	%edx, 32(%rsp)
	movl	$3, %r9d
	movq	%rax, %rdx
	call	BuildDeclarationExprStatement
	jmp	.L66
.L71:
	.loc 1 522 0
	movl	28(%rbp), %eax
	leaq	464(%rbp), %rcx
	movslq	%eax, %rdx
	movq	%rdx, %rax
	salq	$2, %rax
	addq	%rdx, %rax
	leaq	0(,%rax,4), %rdx
	addq	%rdx, %rax
	salq	$2, %rax
	addq	%rcx, %rax
	leaq	.LC46(%rip), %rdx
	movq	%rax, %rcx
	call	strcmp
	testl	%eax, %eax
	jne	.L72
.LBB11:
	.loc 1 523 0
	movl	$1, 60(%rbp)
	.loc 1 524 0
	movl	28(%rbp), %eax
	cltq
	movb	$0, 464(%rbp,%rax)
	.loc 1 525 0
	leaq	28(%rbp), %rax
	movq	%rax, %rcx
	call	pop
	.loc 1 526 0
	movl	28(%rbp), %eax
	leaq	464(%rbp), %rcx
	movslq	%eax, %rdx
	movq	%rdx, %rax
	salq	$2, %rax
	addq	%rdx, %rax
	leaq	0(,%rax,4), %rdx
	addq	%rdx, %rax
	salq	$2, %rax
	addq	%rcx, %rax
	movq	%rax, %rcx
	call	atoi
	movl	%eax, %ebx
	movq	8(%rbp), %rax
	addq	$104, %rax
	movq	%rax, %rcx
	call	atoi
	addl	%ebx, %eax
	movl	%eax, 72(%rbp)
	.loc 1 527 0
	movl	72(%rbp), %edx
	leaq	20496(%rbp), %rax
	movl	%edx, %r8d
	leaq	.LC103(%rip), %rdx
	movq	%rax, %rcx
	call	sprintf
	.loc 1 528 0
	movl	28(%rbp), %eax
	cltq
	movb	$0, 464(%rbp,%rax)
	.loc 1 529 0
	leaq	28(%rbp), %rax
	movq	%rax, %rcx
	call	pop
	.loc 1 530 0
	movl	28(%rbp), %eax
	leaq	464(%rbp), %rcx
	movslq	%eax, %rdx
	movq	%rdx, %rax
	salq	$2, %rax
	addq	%rdx, %rax
	leaq	0(,%rax,4), %rdx
	addq	%rdx, %rax
	salq	$2, %rax
	leaq	(%rcx,%rax), %rdx
	leaq	20608(%rbp), %rax
	movq	%rax, %rcx
	call	strcpy
	.loc 1 531 0
	movl	28(%rbp), %eax
	cltq
	movb	$0, 464(%rbp,%rax)
	.loc 1 532 0
	leaq	28(%rbp), %rax
	movq	%rax, %rcx
	call	pop
	.loc 1 533 0
	movl	28(%rbp), %eax
	cltq
	movb	$0, 464(%rbp,%rax)
	.loc 1 534 0
	movq	0(%rbp), %rcx
	leaq	20608(%rbp), %rdx
	leaq	20496(%rbp), %rax
	movq	%rcx, %r8
	movq	%rax, %rcx
	call	BuildDeclarationStatement
.LBE11:
	jmp	.L66
.L72:
	.loc 1 536 0
	movl	28(%rbp), %eax
	leaq	464(%rbp), %rcx
	movslq	%eax, %rdx
	movq	%rdx, %rax
	salq	$2, %rax
	addq	%rdx, %rax
	leaq	0(,%rax,4), %rdx
	addq	%rdx, %rax
	salq	$2, %rax
	addq	%rcx, %rax
	leaq	.LC48(%rip), %rdx
	movq	%rax, %rcx
	call	strcmp
	testl	%eax, %eax
	jne	.L73
.LBB12:
	.loc 1 537 0
	movl	$1, 60(%rbp)
	.loc 1 538 0
	movl	28(%rbp), %eax
	cltq
	movb	$0, 464(%rbp,%rax)
	.loc 1 539 0
	leaq	28(%rbp), %rax
	movq	%rax, %rcx
	call	pop
	.loc 1 540 0
	movl	28(%rbp), %eax
	leaq	464(%rbp), %rcx
	movslq	%eax, %rdx
	movq	%rdx, %rax
	salq	$2, %rax
	addq	%rdx, %rax
	leaq	0(,%rax,4), %rdx
	addq	%rdx, %rax
	salq	$2, %rax
	addq	%rcx, %rax
	movq	%rax, %rcx
	call	atoi
	movl	%eax, %ebx
	movq	8(%rbp), %rax
	addq	$104, %rax
	movq	%rax, %rcx
	call	atoi
	subl	%eax, %ebx
	movl	%ebx, %eax
	movl	%eax, 68(%rbp)
	.loc 1 541 0
	movl	68(%rbp), %edx
	leaq	20496(%rbp), %rax
	movl	%edx, %r8d
	leaq	.LC103(%rip), %rdx
	movq	%rax, %rcx
	call	sprintf
	.loc 1 542 0
	movl	28(%rbp), %eax
	cltq
	movb	$0, 464(%rbp,%rax)
	.loc 1 543 0
	leaq	28(%rbp), %rax
	movq	%rax, %rcx
	call	pop
	.loc 1 544 0
	movl	28(%rbp), %eax
	leaq	464(%rbp), %rcx
	movslq	%eax, %rdx
	movq	%rdx, %rax
	salq	$2, %rax
	addq	%rdx, %rax
	leaq	0(,%rax,4), %rdx
	addq	%rdx, %rax
	salq	$2, %rax
	leaq	(%rcx,%rax), %rdx
	leaq	20608(%rbp), %rax
	movq	%rax, %rcx
	call	strcpy
	.loc 1 545 0
	movl	28(%rbp), %eax
	cltq
	movb	$0, 464(%rbp,%rax)
	.loc 1 546 0
	leaq	28(%rbp), %rax
	movq	%rax, %rcx
	call	pop
	.loc 1 547 0
	movl	28(%rbp), %eax
	cltq
	movb	$0, 464(%rbp,%rax)
	.loc 1 548 0
	movq	0(%rbp), %rcx
	leaq	20608(%rbp), %rdx
	leaq	20496(%rbp), %rax
	movq	%rcx, %r8
	movq	%rax, %rcx
	call	BuildDeclarationStatement
.LBE12:
	jmp	.L66
.L73:
	.loc 1 550 0
	movl	28(%rbp), %eax
	leaq	464(%rbp), %rcx
	movslq	%eax, %rdx
	movq	%rdx, %rax
	salq	$2, %rax
	addq	%rdx, %rax
	leaq	0(,%rax,4), %rdx
	addq	%rdx, %rax
	salq	$2, %rax
	addq	%rcx, %rax
	leaq	.LC77(%rip), %rdx
	movq	%rax, %rcx
	call	strcmp
	testl	%eax, %eax
	jne	.L74
.LBB13:
	.loc 1 551 0
	movl	$1, 60(%rbp)
	.loc 1 552 0
	movl	$0, 64(%rbp)
	.loc 1 553 0
	movl	28(%rbp), %eax
	cltq
	movb	$0, 464(%rbp,%rax)
	.loc 1 554 0
	leaq	28(%rbp), %rax
	movq	%rax, %rcx
	call	pop
	.loc 1 555 0
	movq	8(%rbp), %rax
	leaq	104(%rax), %rdx
	leaq	20496(%rbp), %rax
	movq	%rax, %rcx
	call	strcpy
	.loc 1 556 0
	movl	28(%rbp), %eax
	leaq	464(%rbp), %rcx
	movslq	%eax, %rdx
	movq	%rdx, %rax
	salq	$2, %rax
	addq	%rdx, %rax
	leaq	0(,%rax,4), %rdx
	addq	%rdx, %rax
	salq	$2, %rax
	leaq	(%rcx,%rax), %rdx
	leaq	20608(%rbp), %rax
	movq	%rax, %rcx
	call	strcpy
	.loc 1 557 0
	movl	28(%rbp), %eax
	cltq
	movb	$0, 464(%rbp,%rax)
	.loc 1 558 0
	leaq	28(%rbp), %rax
	movq	%rax, %rcx
	call	pop
	.loc 1 559 0
	movl	28(%rbp), %eax
	cltq
	movb	$0, 464(%rbp,%rax)
	.loc 1 560 0
	leaq	28(%rbp), %rax
	movq	%rax, %rcx
	call	pop
	.loc 1 561 0
	movl	28(%rbp), %eax
	cltq
	movb	$0, 464(%rbp,%rax)
	.loc 1 562 0
	movq	8(%rbp), %rax
	movq	208(%rax), %rax
	movq	%rax, 8(%rbp)
	.loc 1 563 0
	movq	8(%rbp), %rax
	addq	$4, %rax
	leaq	.LC104(%rip), %rdx
	movq	%rax, %rcx
	call	strcmp
	testl	%eax, %eax
	jne	.L75
	.loc 1 565 0
	leaq	.LC105(%rip), %rcx
	call	puts
	.loc 1 566 0
	movq	8(%rbp), %rax
	movq	208(%rax), %rax
	movq	%rax, 8(%rbp)
	.loc 1 567 0
	movq	-8(%rbp), %rdx
	movq	8(%rbp), %rax
	movq	%rax, %rcx
	call	CheckArrayType
	movl	%eax, 64(%rbp)
	.loc 1 568 0
	movl	64(%rbp), %r9d
	leaq	20608(%rbp), %r8
	movq	0(%rbp), %rdx
	leaq	20496(%rbp), %rax
	movl	44(%rbp), %ecx
	movl	%ecx, 32(%rsp)
	movq	%rax, %rcx
	call	BuildDeclarationExprStatement
	.loc 1 569 0
	movq	8(%rbp), %rax
	movq	208(%rax), %rax
	movq	%rax, 8(%rbp)
	jmp	.L66
.L75:
	.loc 1 570 0
	leaq	.LC106(%rip), %rcx
	call	puts
	jmp	.L66
.L74:
.LBE13:
	.loc 1 572 0
	movl	28(%rbp), %eax
	leaq	464(%rbp), %rcx
	movslq	%eax, %rdx
	movq	%rdx, %rax
	salq	$2, %rax
	addq	%rdx, %rax
	leaq	0(,%rax,4), %rdx
	addq	%rdx, %rax
	salq	$2, %rax
	addq	%rcx, %rax
	leaq	.LC58(%rip), %rdx
	movq	%rax, %rcx
	call	strcmp
	testl	%eax, %eax
	jne	.L77
	.loc 1 573 0
	movl	$1, 60(%rbp)
	.loc 1 574 0
	movl	28(%rbp), %eax
	cltq
	movb	$0, 464(%rbp,%rax)
	.loc 1 575 0
	leaq	28(%rbp), %rax
	movq	%rax, %rcx
	call	pop
	.loc 1 576 0
	movq	8(%rbp), %rax
	leaq	104(%rax), %rdx
	leaq	20496(%rbp), %rax
	movq	%rax, %rcx
	call	strcpy
	.loc 1 577 0
	movl	28(%rbp), %eax
	leaq	464(%rbp), %rcx
	movslq	%eax, %rdx
	movq	%rdx, %rax
	salq	$2, %rax
	addq	%rdx, %rax
	leaq	0(,%rax,4), %rdx
	addq	%rdx, %rax
	salq	$2, %rax
	leaq	(%rcx,%rax), %rdx
	leaq	20608(%rbp), %rax
	movq	%rax, %rcx
	call	strcpy
	.loc 1 578 0
	movl	28(%rbp), %eax
	cltq
	movb	$0, 464(%rbp,%rax)
	.loc 1 579 0
	leaq	28(%rbp), %rax
	movq	%rax, %rcx
	call	pop
	.loc 1 580 0
	movq	0(%rbp), %r8
	leaq	20608(%rbp), %rdx
	leaq	20496(%rbp), %rax
	movl	44(%rbp), %ecx
	movl	%ecx, 32(%rsp)
	movl	$1, %r9d
	movq	%rax, %rcx
	call	BuildAssignAndCompareExprStatement
	.loc 1 581 0
	movl	$0, 36(%rbp)
	jmp	.L66
.L77:
	.loc 1 583 0
	movl	28(%rbp), %eax
	leaq	464(%rbp), %rcx
	movslq	%eax, %rdx
	movq	%rdx, %rax
	salq	$2, %rax
	addq	%rdx, %rax
	leaq	0(,%rax,4), %rdx
	addq	%rdx, %rax
	salq	$2, %rax
	addq	%rcx, %rax
	leaq	.LC60(%rip), %rdx
	movq	%rax, %rcx
	call	strcmp
	testl	%eax, %eax
	jne	.L78
	.loc 1 584 0
	movl	$1, 60(%rbp)
	.loc 1 585 0
	movl	28(%rbp), %eax
	cltq
	movb	$0, 464(%rbp,%rax)
	.loc 1 586 0
	leaq	28(%rbp), %rax
	movq	%rax, %rcx
	call	pop
	.loc 1 587 0
	movq	8(%rbp), %rax
	leaq	104(%rax), %rdx
	leaq	20496(%rbp), %rax
	movq	%rax, %rcx
	call	strcpy
	.loc 1 588 0
	movl	28(%rbp), %eax
	leaq	464(%rbp), %rcx
	movslq	%eax, %rdx
	movq	%rdx, %rax
	salq	$2, %rax
	addq	%rdx, %rax
	leaq	0(,%rax,4), %rdx
	addq	%rdx, %rax
	salq	$2, %rax
	leaq	(%rcx,%rax), %rdx
	leaq	20608(%rbp), %rax
	movq	%rax, %rcx
	call	strcpy
	.loc 1 589 0
	movl	28(%rbp), %eax
	cltq
	movb	$0, 464(%rbp,%rax)
	.loc 1 590 0
	leaq	28(%rbp), %rax
	movq	%rax, %rcx
	call	pop
	.loc 1 591 0
	movq	0(%rbp), %r8
	leaq	20608(%rbp), %rdx
	leaq	20496(%rbp), %rax
	movl	44(%rbp), %ecx
	movl	%ecx, 32(%rsp)
	movl	$2, %r9d
	movq	%rax, %rcx
	call	BuildAssignAndCompareExprStatement
	.loc 1 592 0
	movl	$0, 36(%rbp)
	jmp	.L66
.L78:
	.loc 1 594 0
	movl	28(%rbp), %eax
	leaq	464(%rbp), %rcx
	movslq	%eax, %rdx
	movq	%rdx, %rax
	salq	$2, %rax
	addq	%rdx, %rax
	leaq	0(,%rax,4), %rdx
	addq	%rdx, %rax
	salq	$2, %rax
	addq	%rcx, %rax
	leaq	.LC62(%rip), %rdx
	movq	%rax, %rcx
	call	strcmp
	testl	%eax, %eax
	jne	.L79
	.loc 1 595 0
	movl	$1, 60(%rbp)
	.loc 1 596 0
	movl	28(%rbp), %eax
	cltq
	movb	$0, 464(%rbp,%rax)
	.loc 1 597 0
	leaq	28(%rbp), %rax
	movq	%rax, %rcx
	call	pop
	.loc 1 598 0
	movq	8(%rbp), %rax
	leaq	104(%rax), %rdx
	leaq	20496(%rbp), %rax
	movq	%rax, %rcx
	call	strcpy
	.loc 1 599 0
	movl	28(%rbp), %eax
	leaq	464(%rbp), %rcx
	movslq	%eax, %rdx
	movq	%rdx, %rax
	salq	$2, %rax
	addq	%rdx, %rax
	leaq	0(,%rax,4), %rdx
	addq	%rdx, %rax
	salq	$2, %rax
	leaq	(%rcx,%rax), %rdx
	leaq	20608(%rbp), %rax
	movq	%rax, %rcx
	call	strcpy
	.loc 1 600 0
	movl	28(%rbp), %eax
	cltq
	movb	$0, 464(%rbp,%rax)
	.loc 1 601 0
	leaq	28(%rbp), %rax
	movq	%rax, %rcx
	call	pop
	.loc 1 602 0
	movq	0(%rbp), %r8
	leaq	20608(%rbp), %rdx
	leaq	20496(%rbp), %rax
	movl	44(%rbp), %ecx
	movl	%ecx, 32(%rsp)
	movl	$3, %r9d
	movq	%rax, %rcx
	call	BuildAssignAndCompareExprStatement
	.loc 1 603 0
	movl	$0, 36(%rbp)
	jmp	.L66
.L79:
	.loc 1 605 0
	movl	28(%rbp), %eax
	leaq	464(%rbp), %rcx
	movslq	%eax, %rdx
	movq	%rdx, %rax
	salq	$2, %rax
	addq	%rdx, %rax
	leaq	0(,%rax,4), %rdx
	addq	%rdx, %rax
	salq	$2, %rax
	addq	%rcx, %rax
	leaq	.LC64(%rip), %rdx
	movq	%rax, %rcx
	call	strcmp
	testl	%eax, %eax
	jne	.L80
	.loc 1 606 0
	movl	$1, 60(%rbp)
	.loc 1 607 0
	movl	28(%rbp), %eax
	cltq
	movb	$0, 464(%rbp,%rax)
	.loc 1 608 0
	leaq	28(%rbp), %rax
	movq	%rax, %rcx
	call	pop
	.loc 1 609 0
	movq	8(%rbp), %rax
	leaq	104(%rax), %rdx
	leaq	20496(%rbp), %rax
	movq	%rax, %rcx
	call	strcpy
	.loc 1 610 0
	movl	28(%rbp), %eax
	leaq	464(%rbp), %rcx
	movslq	%eax, %rdx
	movq	%rdx, %rax
	salq	$2, %rax
	addq	%rdx, %rax
	leaq	0(,%rax,4), %rdx
	addq	%rdx, %rax
	salq	$2, %rax
	leaq	(%rcx,%rax), %rdx
	leaq	20608(%rbp), %rax
	movq	%rax, %rcx
	call	strcpy
	.loc 1 611 0
	movl	28(%rbp), %eax
	cltq
	movb	$0, 464(%rbp,%rax)
	.loc 1 612 0
	leaq	28(%rbp), %rax
	movq	%rax, %rcx
	call	pop
	.loc 1 613 0
	movq	0(%rbp), %r8
	leaq	20608(%rbp), %rdx
	leaq	20496(%rbp), %rax
	movl	44(%rbp), %ecx
	movl	%ecx, 32(%rsp)
	movl	$4, %r9d
	movq	%rax, %rcx
	call	BuildAssignAndCompareExprStatement
	.loc 1 614 0
	movl	$0, 36(%rbp)
	jmp	.L66
.L80:
	.loc 1 616 0
	movl	28(%rbp), %eax
	leaq	464(%rbp), %rcx
	movslq	%eax, %rdx
	movq	%rdx, %rax
	salq	$2, %rax
	addq	%rdx, %rax
	leaq	0(,%rax,4), %rdx
	addq	%rdx, %rax
	salq	$2, %rax
	addq	%rcx, %rax
	leaq	.LC66(%rip), %rdx
	movq	%rax, %rcx
	call	strcmp
	testl	%eax, %eax
	jne	.L81
	.loc 1 618 0
	movl	$1, 60(%rbp)
	.loc 1 619 0
	movl	28(%rbp), %eax
	cltq
	movb	$0, 464(%rbp,%rax)
	.loc 1 620 0
	leaq	28(%rbp), %rax
	movq	%rax, %rcx
	call	pop
	.loc 1 621 0
	movq	8(%rbp), %rax
	leaq	104(%rax), %rdx
	leaq	20496(%rbp), %rax
	movq	%rax, %rcx
	call	strcpy
	.loc 1 622 0
	movl	28(%rbp), %eax
	leaq	464(%rbp), %rcx
	movslq	%eax, %rdx
	movq	%rdx, %rax
	salq	$2, %rax
	addq	%rdx, %rax
	leaq	0(,%rax,4), %rdx
	addq	%rdx, %rax
	salq	$2, %rax
	leaq	(%rcx,%rax), %rdx
	leaq	20608(%rbp), %rax
	movq	%rax, %rcx
	call	strcpy
	.loc 1 623 0
	movl	28(%rbp), %eax
	cltq
	movb	$0, 464(%rbp,%rax)
	.loc 1 624 0
	leaq	28(%rbp), %rax
	movq	%rax, %rcx
	call	pop
	.loc 1 625 0
	movq	0(%rbp), %r8
	leaq	20608(%rbp), %rdx
	leaq	20496(%rbp), %rax
	movl	44(%rbp), %ecx
	movl	%ecx, 32(%rsp)
	movl	$5, %r9d
	movq	%rax, %rcx
	call	BuildAssignAndCompareExprStatement
	.loc 1 626 0
	movl	$0, 36(%rbp)
	jmp	.L66
.L81:
	.loc 1 628 0
	movl	28(%rbp), %eax
	leaq	464(%rbp), %rcx
	movslq	%eax, %rdx
	movq	%rdx, %rax
	salq	$2, %rax
	addq	%rdx, %rax
	leaq	0(,%rax,4), %rdx
	addq	%rdx, %rax
	salq	$2, %rax
	addq	%rcx, %rax
	leaq	.LC70(%rip), %rdx
	movq	%rax, %rcx
	call	strcmp
	testl	%eax, %eax
	jne	.L82
	.loc 1 630 0
	movl	$1, 60(%rbp)
	.loc 1 631 0
	movl	28(%rbp), %eax
	cltq
	movb	$0, 464(%rbp,%rax)
	.loc 1 632 0
	leaq	28(%rbp), %rax
	movq	%rax, %rcx
	call	pop
	.loc 1 633 0
	movq	8(%rbp), %rax
	leaq	104(%rax), %rdx
	leaq	20496(%rbp), %rax
	movq	%rax, %rcx
	call	strcpy
	.loc 1 634 0
	movl	28(%rbp), %eax
	leaq	464(%rbp), %rcx
	movslq	%eax, %rdx
	movq	%rdx, %rax
	salq	$2, %rax
	addq	%rdx, %rax
	leaq	0(,%rax,4), %rdx
	addq	%rdx, %rax
	salq	$2, %rax
	leaq	(%rcx,%rax), %rdx
	leaq	20608(%rbp), %rax
	movq	%rax, %rcx
	call	strcpy
	.loc 1 635 0
	movl	28(%rbp), %eax
	cltq
	movb	$0, 464(%rbp,%rax)
	.loc 1 636 0
	leaq	28(%rbp), %rax
	movq	%rax, %rcx
	call	pop
	.loc 1 637 0
	movq	0(%rbp), %r8
	leaq	20608(%rbp), %rdx
	leaq	20496(%rbp), %rax
	movl	44(%rbp), %ecx
	movl	%ecx, 32(%rsp)
	movl	$6, %r9d
	movq	%rax, %rcx
	call	BuildAssignAndCompareExprStatement
	.loc 1 638 0
	movl	$0, 36(%rbp)
	jmp	.L66
.L82:
	.loc 1 640 0
	movl	28(%rbp), %eax
	leaq	464(%rbp), %rcx
	movslq	%eax, %rdx
	movq	%rdx, %rax
	salq	$2, %rax
	addq	%rdx, %rax
	leaq	0(,%rax,4), %rdx
	addq	%rdx, %rax
	salq	$2, %rax
	addq	%rcx, %rax
	leaq	.LC68(%rip), %rdx
	movq	%rax, %rcx
	call	strcmp
	testl	%eax, %eax
	jne	.L83
	.loc 1 642 0
	movl	$1, 60(%rbp)
	.loc 1 643 0
	movl	28(%rbp), %eax
	cltq
	movb	$0, 464(%rbp,%rax)
	.loc 1 644 0
	leaq	28(%rbp), %rax
	movq	%rax, %rcx
	call	pop
	.loc 1 645 0
	movq	8(%rbp), %rax
	leaq	104(%rax), %rdx
	leaq	20496(%rbp), %rax
	movq	%rax, %rcx
	call	strcpy
	.loc 1 646 0
	movl	28(%rbp), %eax
	leaq	464(%rbp), %rcx
	movslq	%eax, %rdx
	movq	%rdx, %rax
	salq	$2, %rax
	addq	%rdx, %rax
	leaq	0(,%rax,4), %rdx
	addq	%rdx, %rax
	salq	$2, %rax
	leaq	(%rcx,%rax), %rdx
	leaq	20608(%rbp), %rax
	movq	%rax, %rcx
	call	strcpy
	.loc 1 647 0
	movl	28(%rbp), %eax
	cltq
	movb	$0, 464(%rbp,%rax)
	.loc 1 648 0
	leaq	28(%rbp), %rax
	movq	%rax, %rcx
	call	pop
	.loc 1 649 0
	movq	0(%rbp), %r8
	leaq	20608(%rbp), %rdx
	leaq	20496(%rbp), %rax
	movl	44(%rbp), %ecx
	movl	%ecx, 32(%rsp)
	movl	$7, %r9d
	movq	%rax, %rcx
	call	BuildAssignAndCompareExprStatement
	.loc 1 650 0
	movl	$0, 36(%rbp)
	jmp	.L66
.L83:
	.loc 1 652 0
	movl	28(%rbp), %eax
	leaq	464(%rbp), %rcx
	movslq	%eax, %rdx
	movq	%rdx, %rax
	salq	$2, %rax
	addq	%rdx, %rax
	leaq	0(,%rax,4), %rdx
	addq	%rdx, %rax
	salq	$2, %rax
	addq	%rcx, %rax
	leaq	.LC72(%rip), %rdx
	movq	%rax, %rcx
	call	strcmp
	testl	%eax, %eax
	jne	.L84
	.loc 1 654 0
	movl	$1, 60(%rbp)
	.loc 1 655 0
	movl	28(%rbp), %eax
	cltq
	movb	$0, 464(%rbp,%rax)
	.loc 1 656 0
	leaq	28(%rbp), %rax
	movq	%rax, %rcx
	call	pop
	.loc 1 657 0
	movq	8(%rbp), %rax
	leaq	104(%rax), %rdx
	leaq	20496(%rbp), %rax
	movq	%rax, %rcx
	call	strcpy
	.loc 1 658 0
	movl	28(%rbp), %eax
	leaq	464(%rbp), %rcx
	movslq	%eax, %rdx
	movq	%rdx, %rax
	salq	$2, %rax
	addq	%rdx, %rax
	leaq	0(,%rax,4), %rdx
	addq	%rdx, %rax
	salq	$2, %rax
	leaq	(%rcx,%rax), %rdx
	leaq	20608(%rbp), %rax
	movq	%rax, %rcx
	call	strcpy
	.loc 1 659 0
	movl	28(%rbp), %eax
	cltq
	movb	$0, 464(%rbp,%rax)
	.loc 1 660 0
	leaq	28(%rbp), %rax
	movq	%rax, %rcx
	call	pop
	.loc 1 661 0
	movq	0(%rbp), %r8
	leaq	20608(%rbp), %rdx
	leaq	20496(%rbp), %rax
	movl	44(%rbp), %ecx
	movl	%ecx, 32(%rsp)
	movl	$8, %r9d
	movq	%rax, %rcx
	call	BuildAssignAndCompareExprStatement
	.loc 1 662 0
	movl	$0, 36(%rbp)
	jmp	.L66
.L84:
	.loc 1 664 0
	movl	28(%rbp), %eax
	leaq	464(%rbp), %rcx
	movslq	%eax, %rdx
	movq	%rdx, %rax
	salq	$2, %rax
	addq	%rdx, %rax
	leaq	0(,%rax,4), %rdx
	addq	%rdx, %rax
	salq	$2, %rax
	addq	%rcx, %rax
	leaq	.LC74(%rip), %rdx
	movq	%rax, %rcx
	call	strcmp
	testl	%eax, %eax
	jne	.L85
	.loc 1 666 0
	movl	$1, 60(%rbp)
	.loc 1 667 0
	movl	28(%rbp), %eax
	cltq
	movb	$0, 464(%rbp,%rax)
	.loc 1 668 0
	leaq	28(%rbp), %rax
	movq	%rax, %rcx
	call	pop
	.loc 1 669 0
	movq	8(%rbp), %rax
	leaq	104(%rax), %rdx
	leaq	20496(%rbp), %rax
	movq	%rax, %rcx
	call	strcpy
	.loc 1 670 0
	movl	28(%rbp), %eax
	leaq	464(%rbp), %rcx
	movslq	%eax, %rdx
	movq	%rdx, %rax
	salq	$2, %rax
	addq	%rdx, %rax
	leaq	0(,%rax,4), %rdx
	addq	%rdx, %rax
	salq	$2, %rax
	leaq	(%rcx,%rax), %rdx
	leaq	20608(%rbp), %rax
	movq	%rax, %rcx
	call	strcpy
	.loc 1 671 0
	movl	28(%rbp), %eax
	cltq
	movb	$0, 464(%rbp,%rax)
	.loc 1 672 0
	leaq	28(%rbp), %rax
	movq	%rax, %rcx
	call	pop
	.loc 1 673 0
	movq	0(%rbp), %r8
	leaq	20608(%rbp), %rdx
	leaq	20496(%rbp), %rax
	movl	44(%rbp), %ecx
	movl	%ecx, 32(%rsp)
	movl	$9, %r9d
	movq	%rax, %rcx
	call	BuildAssignAndCompareExprStatement
	.loc 1 674 0
	movl	$0, 36(%rbp)
	jmp	.L66
.L85:
	.loc 1 677 0
	leaq	28(%rbp), %rax
	movq	%rax, %rcx
	call	empty
	testl	%eax, %eax
	jne	.L86
	.loc 1 677 0 is_stmt 0 discriminator 2
	cmpl	$0, 60(%rbp)
	jne	.L86
	.loc 1 678 0 is_stmt 1
	leaq	.LC107(%rip), %rcx
	call	puts
	.loc 1 679 0
	movq	8(%rbp), %rax
	addq	$104, %rax
	movq	%rax, %rdx
	leaq	.LC108(%rip), %rcx
	call	printf
	.loc 1 680 0
	movl	28(%rbp), %eax
	addl	$1, %eax
	movl	%eax, 28(%rbp)
	.loc 1 681 0
	movq	8(%rbp), %rax
	leaq	104(%rax), %r8
	movl	28(%rbp), %eax
	leaq	464(%rbp), %rcx
	movslq	%eax, %rdx
	movq	%rdx, %rax
	salq	$2, %rax
	addq	%rdx, %rax
	leaq	0(,%rax,4), %rdx
	addq	%rdx, %rax
	salq	$2, %rax
	addq	%rax, %rcx
	leaq	28(%rbp), %rax
	movq	%rax, %rdx
	call	push
	jmp	.L66
.L86:
	.loc 1 684 0
	movl	444(%rbp), %eax
	cmpl	$1, %eax
	jne	.L66
	.loc 1 685 0
	leaq	.LC109(%rip), %rcx
	call	puts
	.loc 1 686 0
	movq	8(%rbp), %rax
	addq	$104, %rax
	movq	%rax, %rdx
	leaq	.LC108(%rip), %rcx
	call	printf
	.loc 1 687 0
	movl	28(%rbp), %eax
	addl	$1, %eax
	movl	%eax, 28(%rbp)
	.loc 1 688 0
	movq	8(%rbp), %rax
	leaq	104(%rax), %r8
	movl	28(%rbp), %eax
	leaq	464(%rbp), %rcx
	movslq	%eax, %rdx
	movq	%rdx, %rax
	salq	$2, %rax
	addq	%rdx, %rax
	leaq	0(,%rax,4), %rdx
	addq	%rdx, %rax
	salq	$2, %rax
	addq	%rax, %rcx
	leaq	28(%rbp), %rax
	movq	%rax, %rdx
	call	push
.L66:
.LBE10:
	.loc 1 695 0
	movq	8(%rbp), %rax
	addq	$4, %rax
	movq	%rax, %rcx
	call	isIdentifierType
	cmpl	$1, %eax
	jne	.L87
.LBB14:
	.loc 1 696 0
	movl	$0, 52(%rbp)
	.loc 1 698 0
	cmpl	$1, 32(%rbp)
	jne	.L88
	.loc 1 699 0
	leaq	.LC110(%rip), %rcx
	call	puts
	.loc 1 700 0
	leaq	.LC3(%rip), %rcx
	call	puts
	.loc 1 701 0
	movq	8(%rbp), %rax
	movq	208(%rax), %rax
	movq	%rax, 8(%rbp)
	.loc 1 702 0
	movl	$0, 32(%rbp)
	.loc 1 703 0
	jmp	.L4
.L88:
	.loc 1 707 0
	movl	28(%rbp), %eax
	leaq	464(%rbp), %rcx
	movslq	%eax, %rdx
	movq	%rdx, %rax
	salq	$2, %rax
	addq	%rdx, %rax
	leaq	0(,%rax,4), %rdx
	addq	%rdx, %rax
	salq	$2, %rax
	addq	%rcx, %rax
	leaq	.LC32(%rip), %rdx
	movq	%rax, %rcx
	call	strcmp
	testl	%eax, %eax
	jne	.L89
	.loc 1 708 0
	leaq	.LC111(%rip), %rcx
	call	puts
	.loc 1 709 0
	movq	8(%rbp), %rax
	addq	$104, %rax
	movq	%rax, %rdx
	leaq	.LC108(%rip), %rcx
	call	printf
	.loc 1 710 0
	movl	28(%rbp), %eax
	addl	$1, %eax
	movl	%eax, 28(%rbp)
	.loc 1 711 0
	movq	8(%rbp), %rax
	leaq	104(%rax), %r8
	movl	28(%rbp), %eax
	leaq	464(%rbp), %rcx
	movslq	%eax, %rdx
	movq	%rdx, %rax
	salq	$2, %rax
	addq	%rdx, %rax
	leaq	0(,%rax,4), %rdx
	addq	%rdx, %rax
	salq	$2, %rax
	addq	%rax, %rcx
	leaq	28(%rbp), %rax
	movq	%rax, %rdx
	call	push
	.loc 1 712 0
	leaq	.LC3(%rip), %rcx
	call	puts
	.loc 1 713 0
	movq	8(%rbp), %rax
	movq	208(%rax), %rax
	movq	%rax, 8(%rbp)
	.loc 1 714 0
	jmp	.L4
.L89:
	.loc 1 717 0
	leaq	28(%rbp), %rax
	movq	%rax, %rcx
	call	pop
	.loc 1 719 0
	movl	28(%rbp), %eax
	leaq	464(%rbp), %rcx
	movslq	%eax, %rdx
	movq	%rdx, %rax
	salq	$2, %rax
	addq	%rdx, %rax
	leaq	0(,%rax,4), %rdx
	addq	%rdx, %rax
	salq	$2, %rax
	addq	%rcx, %rax
	leaq	.LC32(%rip), %rdx
	movq	%rax, %rcx
	call	strcmp
	testl	%eax, %eax
	jne	.L90
	.loc 1 720 0
	movl	$1, 52(%rbp)
	.loc 1 721 0
	leaq	.LC111(%rip), %rcx
	call	puts
	.loc 1 722 0
	movq	8(%rbp), %rax
	addq	$104, %rax
	movq	%rax, %rdx
	leaq	.LC108(%rip), %rcx
	call	printf
	.loc 1 723 0
	movq	432(%rbp), %rax
	movq	440(%rbp), %rdx
	movq	%rax, -48(%rbp)
	movq	%rdx, -40(%rbp)
	movq	448(%rbp), %rax
	movq	%rax, -32(%rbp)
	leaq	-48(%rbp), %rax
	movq	%rax, %rcx
	call	CheckIfMemberOfStatement
	movl	%eax, 44(%rbp)
	.loc 1 724 0
	cmpl	$-1, 44(%rbp)
	je	.L91
.LBB15:
	.loc 1 726 0
	leaq	20464(%rbp), %rax
	movl	$20, %r8d
	movl	$0, %edx
	movq	%rax, %rcx
	call	memset
	.loc 1 727 0
	movl	44(%rbp), %eax
	movl	%eax, %edx
	leaq	.LC102(%rip), %rcx
	call	printf
	.loc 1 728 0
	cmpl	$1, 44(%rbp)
	jne	.L92
	.loc 1 728 0 is_stmt 0 discriminator 1
	leaq	20464(%rbp), %rax
	movl	$1970435187, (%rax)
	movw	$29795, 4(%rax)
	movb	$0, 6(%rax)
	jmp	.L93
.L92:
	.loc 1 729 0 is_stmt 1
	cmpl	$2, 44(%rbp)
	jne	.L94
	.loc 1 729 0 is_stmt 0 discriminator 1
	leaq	20464(%rbp), %rax
	movl	$1869180533, (%rax)
	movw	$110, 4(%rax)
	jmp	.L93
.L94:
	.loc 1 730 0 is_stmt 1
	cmpl	$3, 44(%rbp)
	jne	.L95
	.loc 1 730 0 is_stmt 0 discriminator 1
	leaq	20464(%rbp), %rax
	movl	$1836412517, (%rax)
	movb	$0, 4(%rax)
	jmp	.L93
.L95:
	.loc 1 731 0 is_stmt 1
	cmpl	$4, 44(%rbp)
	jne	.L96
	.loc 1 731 0 is_stmt 0 discriminator 1
	leaq	20464(%rbp), %rax
	movl	$1702064993, (%rax)
	movw	$29810, 4(%rax)
	movb	$0, 6(%rax)
	jmp	.L93
.L96:
	.loc 1 732 0 is_stmt 1
	cmpl	$5, 44(%rbp)
	jne	.L93
	.loc 1 732 0 is_stmt 0 discriminator 1
	leaq	20464(%rbp), %rax
	movl	$1852399981, (%rax)
	movb	$0, 4(%rax)
.L93:
	.loc 1 734 0 is_stmt 1
	movq	-8(%rbp), %rcx
	leaq	20464(%rbp), %rdx
	movq	8(%rbp), %rax
	movq	%rcx, %r8
	movq	%rax, %rcx
	call	InsertSymbolTable
.LBE15:
	jmp	.L97
.L91:
	.loc 1 737 0
	movq	-8(%rbp), %rdx
	movq	8(%rbp), %rax
	movq	%rdx, %r8
	leaq	.LC112(%rip), %rdx
	movq	%rax, %rcx
	call	InsertSymbolTable
.L97:
	.loc 1 739 0
	movl	28(%rbp), %eax
	addl	$1, %eax
	movl	%eax, 28(%rbp)
	.loc 1 740 0
	movq	8(%rbp), %rax
	leaq	104(%rax), %r8
	movl	28(%rbp), %eax
	leaq	464(%rbp), %rcx
	movslq	%eax, %rdx
	movq	%rdx, %rax
	salq	$2, %rax
	addq	%rdx, %rax
	leaq	0(,%rax,4), %rdx
	addq	%rdx, %rax
	salq	$2, %rax
	addq	%rax, %rcx
	leaq	28(%rbp), %rax
	movq	%rax, %rdx
	call	push
	jmp	.L87
.L90:
	.loc 1 742 0
	movl	28(%rbp), %eax
	leaq	464(%rbp), %rcx
	movslq	%eax, %rdx
	movq	%rdx, %rax
	salq	$2, %rax
	addq	%rdx, %rax
	leaq	0(,%rax,4), %rdx
	addq	%rdx, %rax
	salq	$2, %rax
	addq	%rcx, %rax
	leaq	.LC8(%rip), %rdx
	movq	%rax, %rcx
	call	strcmp
	testl	%eax, %eax
	jne	.L98
	.loc 1 743 0
	movl	$1, 52(%rbp)
	.loc 1 744 0
	movl	28(%rbp), %eax
	cltq
	movb	$0, 464(%rbp,%rax)
	.loc 1 745 0
	movq	8(%rbp), %rax
	leaq	104(%rax), %rcx
	movq	0(%rbp), %rax
	movl	$3, %r8d
	movq	%rax, %rdx
	call	BuildSingleExprStatement
	jmp	.L87
.L98:
	.loc 1 747 0
	movl	28(%rbp), %eax
	leaq	464(%rbp), %rcx
	movslq	%eax, %rdx
	movq	%rdx, %rax
	salq	$2, %rax
	addq	%rdx, %rax
	leaq	0(,%rax,4), %rdx
	addq	%rdx, %rax
	salq	$2, %rax
	addq	%rcx, %rax
	leaq	.LC18(%rip), %rdx
	movq	%rax, %rcx
	call	strcmp
	testl	%eax, %eax
	jne	.L99
	.loc 1 748 0
	movl	$1, 52(%rbp)
	.loc 1 749 0
	movl	28(%rbp), %eax
	cltq
	movb	$0, 464(%rbp,%rax)
	.loc 1 750 0
	movq	8(%rbp), %rax
	leaq	104(%rax), %rcx
	movq	0(%rbp), %rax
	movl	$5, %r8d
	movq	%rax, %rdx
	call	BuildSingleExprStatement
	jmp	.L87
.L99:
	.loc 1 752 0
	movl	28(%rbp), %eax
	leaq	464(%rbp), %rcx
	movslq	%eax, %rdx
	movq	%rdx, %rax
	salq	$2, %rax
	addq	%rdx, %rax
	leaq	0(,%rax,4), %rdx
	addq	%rdx, %rax
	salq	$2, %rax
	addq	%rcx, %rax
	leaq	.LC14(%rip), %rdx
	movq	%rax, %rcx
	call	strcmp
	testl	%eax, %eax
	jne	.L100
	.loc 1 753 0
	movl	$1, 52(%rbp)
	.loc 1 754 0
	movl	28(%rbp), %eax
	cltq
	movb	$0, 464(%rbp,%rax)
	.loc 1 755 0
	movq	0(%rbp), %rdx
	movq	8(%rbp), %rax
	movl	$1, %r8d
	movq	%rax, %rcx
	call	BuildDoubleExprStatement
	jmp	.L87
.L100:
	.loc 1 757 0
	movl	28(%rbp), %eax
	leaq	464(%rbp), %rcx
	movslq	%eax, %rdx
	movq	%rdx, %rax
	salq	$2, %rax
	addq	%rdx, %rax
	leaq	0(,%rax,4), %rdx
	addq	%rdx, %rax
	salq	$2, %rax
	addq	%rcx, %rax
	leaq	.LC16(%rip), %rdx
	movq	%rax, %rcx
	call	strcmp
	testl	%eax, %eax
	jne	.L101
	.loc 1 758 0
	movl	$1, 52(%rbp)
	.loc 1 759 0
	movl	28(%rbp), %eax
	cltq
	movb	$0, 464(%rbp,%rax)
	.loc 1 760 0
	movq	0(%rbp), %rdx
	movq	8(%rbp), %rax
	movl	$2, %r8d
	movq	%rax, %rcx
	call	BuildDoubleExprStatement
	jmp	.L87
.L101:
	.loc 1 762 0
	movl	28(%rbp), %eax
	leaq	464(%rbp), %rcx
	movslq	%eax, %rdx
	movq	%rdx, %rax
	salq	$2, %rax
	addq	%rdx, %rax
	leaq	0(,%rax,4), %rdx
	addq	%rdx, %rax
	salq	$2, %rax
	addq	%rcx, %rax
	leaq	.LC12(%rip), %rdx
	movq	%rax, %rcx
	call	strcmp
	testl	%eax, %eax
	jne	.L102
	.loc 1 763 0
	movl	$1, 52(%rbp)
	.loc 1 764 0
	movl	28(%rbp), %eax
	cltq
	movb	$0, 464(%rbp,%rax)
	.loc 1 765 0
	movq	8(%rbp), %rax
	leaq	104(%rax), %rcx
	movq	0(%rbp), %rax
	movl	$6, %r8d
	movq	%rax, %rdx
	call	BuildSingleExprStatement
	jmp	.L87
.L102:
	.loc 1 767 0
	movl	28(%rbp), %eax
	leaq	464(%rbp), %rcx
	movslq	%eax, %rdx
	movq	%rdx, %rax
	salq	$2, %rax
	addq	%rdx, %rax
	leaq	0(,%rax,4), %rdx
	addq	%rdx, %rax
	salq	$2, %rax
	addq	%rcx, %rax
	leaq	.LC33(%rip), %rdx
	movq	%rax, %rcx
	call	strcmp
	testl	%eax, %eax
	jne	.L103
	.loc 1 768 0
	movl	$1, 52(%rbp)
	.loc 1 769 0
	movq	8(%rbp), %rax
	addq	$104, %rax
	movq	%rax, %rdx
	leaq	.LC113(%rip), %rcx
	call	printf
	.loc 1 770 0
	leaq	.LC3(%rip), %rcx
	call	puts
	.loc 1 771 0
	movq	8(%rbp), %rax
	movq	208(%rax), %rax
	movq	%rax, 8(%rbp)
	.loc 1 772 0
	movl	28(%rbp), %eax
	addl	$1, %eax
	movl	%eax, 28(%rbp)
	.loc 1 773 0
	jmp	.L4
.L103:
	.loc 1 775 0
	movl	28(%rbp), %eax
	leaq	464(%rbp), %rcx
	movslq	%eax, %rdx
	movq	%rdx, %rax
	salq	$2, %rax
	addq	%rdx, %rax
	leaq	0(,%rax,4), %rdx
	addq	%rdx, %rax
	salq	$2, %rax
	addq	%rcx, %rax
	leaq	.LC46(%rip), %rdx
	movq	%rax, %rcx
	call	strcmp
	testl	%eax, %eax
	jne	.L104
	.loc 1 776 0
	movl	$1, 52(%rbp)
	.loc 1 777 0
	movq	432(%rbp), %rax
	movq	440(%rbp), %rdx
	movq	%rax, -48(%rbp)
	movq	%rdx, -40(%rbp)
	movq	448(%rbp), %rax
	movq	%rax, -32(%rbp)
	leaq	-48(%rbp), %rax
	movq	%rax, %rcx
	call	CheckIfMemberOfStatement
	movl	%eax, 44(%rbp)
	.loc 1 778 0
	movq	8(%rbp), %rax
	leaq	104(%rax), %rdx
	leaq	20496(%rbp), %rax
	movq	%rax, %rcx
	call	strcpy
	.loc 1 779 0
	movq	8(%rbp), %rax
	movq	208(%rax), %rax
	movq	%rax, 8(%rbp)
	.loc 1 780 0
	movq	8(%rbp), %rax
	addq	$4, %rax
	leaq	.LC114(%rip), %rdx
	movq	%rax, %rcx
	call	strcmp
	testl	%eax, %eax
	jne	.L105
	.loc 1 781 0
	movq	8(%rbp), %rax
	movq	208(%rax), %rax
	movq	%rax, 8(%rbp)
	.loc 1 782 0
	movq	8(%rbp), %rax
	leaq	104(%rax), %rdx
	leaq	20608(%rbp), %rax
	movq	%rax, %rcx
	call	strcpy
	.loc 1 783 0
	movq	0(%rbp), %r8
	leaq	20608(%rbp), %rdx
	leaq	20496(%rbp), %rax
	movl	44(%rbp), %ecx
	movl	%ecx, 32(%rsp)
	movl	$1, %r9d
	movq	%rax, %rcx
	call	BuildSimpleExpressionStatement
	jmp	.L87
.L105:
	.loc 1 786 0
	movq	8(%rbp), %rax
	movq	208(%rax), %rax
	movq	%rax, 8(%rbp)
	.loc 1 787 0
	movq	8(%rbp), %rax
	leaq	104(%rax), %rdx
	leaq	20608(%rbp), %rax
	movq	%rax, %rcx
	call	strcpy
	.loc 1 788 0
	movq	0(%rbp), %r8
	leaq	20608(%rbp), %rdx
	leaq	20496(%rbp), %rax
	movl	44(%rbp), %ecx
	movl	%ecx, 32(%rsp)
	movl	$1, %r9d
	movq	%rax, %rcx
	call	BuildSimpleExpressionStatement
	jmp	.L87
.L104:
	.loc 1 791 0
	movl	28(%rbp), %eax
	leaq	464(%rbp), %rcx
	movslq	%eax, %rdx
	movq	%rdx, %rax
	salq	$2, %rax
	addq	%rdx, %rax
	leaq	0(,%rax,4), %rdx
	addq	%rdx, %rax
	salq	$2, %rax
	addq	%rcx, %rax
	leaq	.LC48(%rip), %rdx
	movq	%rax, %rcx
	call	strcmp
	testl	%eax, %eax
	jne	.L107
	.loc 1 792 0
	movl	$1, 52(%rbp)
	.loc 1 793 0
	movq	432(%rbp), %rax
	movq	440(%rbp), %rdx
	movq	%rax, -48(%rbp)
	movq	%rdx, -40(%rbp)
	movq	448(%rbp), %rax
	movq	%rax, -32(%rbp)
	leaq	-48(%rbp), %rax
	movq	%rax, %rcx
	call	CheckIfMemberOfStatement
	movl	%eax, 44(%rbp)
	.loc 1 794 0
	movq	8(%rbp), %rax
	leaq	104(%rax), %rdx
	leaq	20496(%rbp), %rax
	movq	%rax, %rcx
	call	strcpy
	.loc 1 795 0
	movq	8(%rbp), %rax
	movq	208(%rax), %rax
	movq	%rax, 8(%rbp)
	.loc 1 796 0
	movq	8(%rbp), %rax
	addq	$4, %rax
	leaq	.LC114(%rip), %rdx
	movq	%rax, %rcx
	call	strcmp
	testl	%eax, %eax
	jne	.L108
	.loc 1 797 0
	movq	8(%rbp), %rax
	movq	208(%rax), %rax
	movq	%rax, 8(%rbp)
	.loc 1 798 0
	movq	8(%rbp), %rax
	leaq	104(%rax), %rdx
	leaq	20608(%rbp), %rax
	movq	%rax, %rcx
	call	strcpy
	.loc 1 799 0
	movq	0(%rbp), %r8
	leaq	20608(%rbp), %rdx
	leaq	20496(%rbp), %rax
	movl	44(%rbp), %ecx
	movl	%ecx, 32(%rsp)
	movl	$2, %r9d
	movq	%rax, %rcx
	call	BuildSimpleExpressionStatement
	jmp	.L87
.L108:
	.loc 1 802 0
	movq	8(%rbp), %rax
	movq	208(%rax), %rax
	movq	%rax, 8(%rbp)
	.loc 1 803 0
	movq	8(%rbp), %rax
	leaq	104(%rax), %rdx
	leaq	20608(%rbp), %rax
	movq	%rax, %rcx
	call	strcpy
	.loc 1 804 0
	movq	0(%rbp), %r8
	leaq	20608(%rbp), %rdx
	leaq	20496(%rbp), %rax
	movl	44(%rbp), %ecx
	movl	%ecx, 32(%rsp)
	movl	$2, %r9d
	movq	%rax, %rcx
	call	BuildSimpleExpressionStatement
	jmp	.L87
.L107:
	.loc 1 807 0
	movl	28(%rbp), %eax
	leaq	464(%rbp), %rcx
	movslq	%eax, %rdx
	movq	%rdx, %rax
	salq	$2, %rax
	addq	%rdx, %rax
	leaq	0(,%rax,4), %rdx
	addq	%rdx, %rax
	salq	$2, %rax
	addq	%rcx, %rax
	leaq	.LC50(%rip), %rdx
	movq	%rax, %rcx
	call	strcmp
	testl	%eax, %eax
	jne	.L110
	.loc 1 808 0
	movl	$1, 52(%rbp)
	.loc 1 809 0
	movq	432(%rbp), %rax
	movq	440(%rbp), %rdx
	movq	%rax, -48(%rbp)
	movq	%rdx, -40(%rbp)
	movq	448(%rbp), %rax
	movq	%rax, -32(%rbp)
	leaq	-48(%rbp), %rax
	movq	%rax, %rcx
	call	CheckIfMemberOfStatement
	movl	%eax, 44(%rbp)
	.loc 1 810 0
	movq	8(%rbp), %rax
	leaq	104(%rax), %rdx
	leaq	20496(%rbp), %rax
	movq	%rax, %rcx
	call	strcpy
	.loc 1 811 0
	movq	8(%rbp), %rax
	movq	208(%rax), %rax
	movq	%rax, 8(%rbp)
	.loc 1 812 0
	movq	8(%rbp), %rax
	addq	$4, %rax
	leaq	.LC114(%rip), %rdx
	movq	%rax, %rcx
	call	strcmp
	testl	%eax, %eax
	jne	.L111
	.loc 1 813 0
	movq	8(%rbp), %rax
	movq	208(%rax), %rax
	movq	%rax, 8(%rbp)
	.loc 1 814 0
	movq	8(%rbp), %rax
	leaq	104(%rax), %rdx
	leaq	20608(%rbp), %rax
	movq	%rax, %rcx
	call	strcpy
	.loc 1 815 0
	movq	0(%rbp), %r8
	leaq	20608(%rbp), %rdx
	leaq	20496(%rbp), %rax
	movl	44(%rbp), %ecx
	movl	%ecx, 32(%rsp)
	movl	$3, %r9d
	movq	%rax, %rcx
	call	BuildSimpleExpressionStatement
	jmp	.L87
.L111:
	.loc 1 818 0
	movq	8(%rbp), %rax
	movq	208(%rax), %rax
	movq	%rax, 8(%rbp)
	.loc 1 819 0
	movq	8(%rbp), %rax
	leaq	104(%rax), %rdx
	leaq	20608(%rbp), %rax
	movq	%rax, %rcx
	call	strcpy
	.loc 1 820 0
	movq	0(%rbp), %r8
	leaq	20608(%rbp), %rdx
	leaq	20496(%rbp), %rax
	movl	44(%rbp), %ecx
	movl	%ecx, 32(%rsp)
	movl	$3, %r9d
	movq	%rax, %rcx
	call	BuildSimpleExpressionStatement
	jmp	.L87
.L110:
	.loc 1 823 0
	movl	28(%rbp), %eax
	leaq	464(%rbp), %rcx
	movslq	%eax, %rdx
	movq	%rdx, %rax
	salq	$2, %rax
	addq	%rdx, %rax
	leaq	0(,%rax,4), %rdx
	addq	%rdx, %rax
	salq	$2, %rax
	addq	%rcx, %rax
	leaq	.LC52(%rip), %rdx
	movq	%rax, %rcx
	call	strcmp
	testl	%eax, %eax
	jne	.L113
	.loc 1 824 0
	movl	$1, 52(%rbp)
	.loc 1 825 0
	movq	432(%rbp), %rax
	movq	440(%rbp), %rdx
	movq	%rax, -48(%rbp)
	movq	%rdx, -40(%rbp)
	movq	448(%rbp), %rax
	movq	%rax, -32(%rbp)
	leaq	-48(%rbp), %rax
	movq	%rax, %rcx
	call	CheckIfMemberOfStatement
	movl	%eax, 44(%rbp)
	.loc 1 826 0
	movq	8(%rbp), %rax
	leaq	104(%rax), %rdx
	leaq	20496(%rbp), %rax
	movq	%rax, %rcx
	call	strcpy
	.loc 1 827 0
	movq	8(%rbp), %rax
	movq	208(%rax), %rax
	movq	%rax, 8(%rbp)
	.loc 1 828 0
	movq	8(%rbp), %rax
	addq	$4, %rax
	leaq	.LC114(%rip), %rdx
	movq	%rax, %rcx
	call	strcmp
	testl	%eax, %eax
	jne	.L114
	.loc 1 829 0
	movq	8(%rbp), %rax
	movq	208(%rax), %rax
	movq	%rax, 8(%rbp)
	.loc 1 830 0
	movq	8(%rbp), %rax
	leaq	104(%rax), %rdx
	leaq	20608(%rbp), %rax
	movq	%rax, %rcx
	call	strcpy
	.loc 1 831 0
	movq	0(%rbp), %r8
	leaq	20608(%rbp), %rdx
	leaq	20496(%rbp), %rax
	movl	44(%rbp), %ecx
	movl	%ecx, 32(%rsp)
	movl	$4, %r9d
	movq	%rax, %rcx
	call	BuildSimpleExpressionStatement
	jmp	.L87
.L114:
	.loc 1 834 0
	movq	8(%rbp), %rax
	movq	208(%rax), %rax
	movq	%rax, 8(%rbp)
	.loc 1 835 0
	movq	8(%rbp), %rax
	leaq	104(%rax), %rdx
	leaq	20608(%rbp), %rax
	movq	%rax, %rcx
	call	strcpy
	.loc 1 836 0
	movq	0(%rbp), %r8
	leaq	20608(%rbp), %rdx
	leaq	20496(%rbp), %rax
	movl	44(%rbp), %ecx
	movl	%ecx, 32(%rsp)
	movl	$4, %r9d
	movq	%rax, %rcx
	call	BuildSimpleExpressionStatement
	jmp	.L87
.L113:
	.loc 1 839 0
	movl	28(%rbp), %eax
	leaq	464(%rbp), %rcx
	movslq	%eax, %rdx
	movq	%rdx, %rax
	salq	$2, %rax
	addq	%rdx, %rax
	leaq	0(,%rax,4), %rdx
	addq	%rdx, %rax
	salq	$2, %rax
	addq	%rcx, %rax
	leaq	.LC54(%rip), %rdx
	movq	%rax, %rcx
	call	strcmp
	testl	%eax, %eax
	jne	.L116
.LBB16:
	.loc 1 840 0
	movl	$1, 52(%rbp)
	.loc 1 841 0
	movl	28(%rbp), %eax
	cltq
	movb	$0, 464(%rbp,%rax)
	.loc 1 842 0
	movq	8(%rbp), %rax
	leaq	104(%rax), %rdx
	.loc 1 842 0
	movl	44(%rbp), %eax
	movl	%eax, 48(%rsp)
	movq	%rdx, 40(%rsp)
	movl	$0, 32(%rsp)
	movl	$0, %r9d
	movl	$0, %r8d
	movl	$0, %edx
	movl	$8, %ecx
	call	expr_create
	movq	%rax, 96(%rbp)
	.loc 1 843 0
	movq	96(%rbp), %rdx
	movq	0(%rbp), %rax
	movq	%rdx, %r9
	movl	$0, %r8d
	movl	$0, %edx
	movq	%rax, %rcx
	call	push_commandList
	.loc 1 844 0
	movl	$0, 36(%rbp)
.LBE16:
	jmp	.L87
.L116:
	.loc 1 846 0
	movl	28(%rbp), %eax
	leaq	464(%rbp), %rcx
	movslq	%eax, %rdx
	movq	%rdx, %rax
	salq	$2, %rax
	addq	%rdx, %rax
	leaq	0(,%rax,4), %rdx
	addq	%rdx, %rax
	salq	$2, %rax
	addq	%rcx, %rax
	leaq	.LC56(%rip), %rdx
	movq	%rax, %rcx
	call	strcmp
	testl	%eax, %eax
	jne	.L117
.LBB17:
	.loc 1 847 0
	movl	$1, 52(%rbp)
	.loc 1 848 0
	movl	28(%rbp), %eax
	cltq
	movb	$0, 464(%rbp,%rax)
	.loc 1 849 0
	movq	8(%rbp), %rax
	leaq	104(%rax), %rdx
	.loc 1 849 0
	movl	44(%rbp), %eax
	movl	%eax, 48(%rsp)
	movq	%rdx, 40(%rsp)
	movl	$0, 32(%rsp)
	movl	$0, %r9d
	movl	$0, %r8d
	movl	$0, %edx
	movl	$9, %ecx
	call	expr_create
	movq	%rax, 88(%rbp)
	.loc 1 850 0
	movq	88(%rbp), %rdx
	movq	0(%rbp), %rax
	movq	%rdx, %r9
	movl	$0, %r8d
	movl	$0, %edx
	movq	%rax, %rcx
	call	push_commandList
	.loc 1 851 0
	movl	$0, 36(%rbp)
.LBE17:
	jmp	.L87
.L117:
	.loc 1 853 0
	movl	28(%rbp), %eax
	leaq	464(%rbp), %rcx
	movslq	%eax, %rdx
	movq	%rdx, %rax
	salq	$2, %rax
	addq	%rdx, %rax
	leaq	0(,%rax,4), %rdx
	addq	%rdx, %rax
	salq	$2, %rax
	addq	%rcx, %rax
	leaq	.LC58(%rip), %rdx
	movq	%rax, %rcx
	call	strcmp
	testl	%eax, %eax
	jne	.L118
	.loc 1 854 0
	movl	$1, 52(%rbp)
	.loc 1 855 0
	movl	28(%rbp), %eax
	cltq
	movb	$0, 464(%rbp,%rax)
	.loc 1 856 0
	leaq	28(%rbp), %rax
	movq	%rax, %rcx
	call	pop
	.loc 1 857 0
	movq	8(%rbp), %rax
	leaq	104(%rax), %rdx
	leaq	20496(%rbp), %rax
	movq	%rax, %rcx
	call	strcpy
	.loc 1 858 0
	movl	28(%rbp), %eax
	leaq	464(%rbp), %rcx
	movslq	%eax, %rdx
	movq	%rdx, %rax
	salq	$2, %rax
	addq	%rdx, %rax
	leaq	0(,%rax,4), %rdx
	addq	%rdx, %rax
	salq	$2, %rax
	leaq	(%rcx,%rax), %rdx
	leaq	20608(%rbp), %rax
	movq	%rax, %rcx
	call	strcpy
	.loc 1 859 0
	leaq	28(%rbp), %rax
	movq	%rax, %rcx
	call	pop
	.loc 1 860 0
	movl	28(%rbp), %eax
	cltq
	movb	$0, 464(%rbp,%rax)
	.loc 1 861 0
	movq	0(%rbp), %r8
	leaq	20608(%rbp), %rdx
	leaq	20496(%rbp), %rax
	movl	44(%rbp), %ecx
	movl	%ecx, 32(%rsp)
	movl	$1, %r9d
	movq	%rax, %rcx
	call	BuildAssignAndCompareExprStatement
	.loc 1 862 0
	movl	$0, 36(%rbp)
	jmp	.L87
.L118:
	.loc 1 864 0
	movl	28(%rbp), %eax
	leaq	464(%rbp), %rcx
	movslq	%eax, %rdx
	movq	%rdx, %rax
	salq	$2, %rax
	addq	%rdx, %rax
	leaq	0(,%rax,4), %rdx
	addq	%rdx, %rax
	salq	$2, %rax
	addq	%rcx, %rax
	leaq	.LC60(%rip), %rdx
	movq	%rax, %rcx
	call	strcmp
	testl	%eax, %eax
	jne	.L119
	.loc 1 865 0
	movl	$1, 52(%rbp)
	.loc 1 866 0
	movl	28(%rbp), %eax
	cltq
	movb	$0, 464(%rbp,%rax)
	.loc 1 867 0
	leaq	28(%rbp), %rax
	movq	%rax, %rcx
	call	pop
	.loc 1 868 0
	movq	8(%rbp), %rax
	leaq	104(%rax), %rdx
	leaq	20496(%rbp), %rax
	movq	%rax, %rcx
	call	strcpy
	.loc 1 869 0
	movl	28(%rbp), %eax
	leaq	464(%rbp), %rcx
	movslq	%eax, %rdx
	movq	%rdx, %rax
	salq	$2, %rax
	addq	%rdx, %rax
	leaq	0(,%rax,4), %rdx
	addq	%rdx, %rax
	salq	$2, %rax
	leaq	(%rcx,%rax), %rdx
	leaq	20608(%rbp), %rax
	movq	%rax, %rcx
	call	strcpy
	.loc 1 870 0
	leaq	28(%rbp), %rax
	movq	%rax, %rcx
	call	pop
	.loc 1 871 0
	movl	28(%rbp), %eax
	cltq
	movb	$0, 464(%rbp,%rax)
	.loc 1 872 0
	movq	0(%rbp), %r8
	leaq	20608(%rbp), %rdx
	leaq	20496(%rbp), %rax
	movl	44(%rbp), %ecx
	movl	%ecx, 32(%rsp)
	movl	$2, %r9d
	movq	%rax, %rcx
	call	BuildAssignAndCompareExprStatement
	.loc 1 873 0
	movl	$0, 36(%rbp)
	jmp	.L87
.L119:
	.loc 1 875 0
	movl	28(%rbp), %eax
	leaq	464(%rbp), %rcx
	movslq	%eax, %rdx
	movq	%rdx, %rax
	salq	$2, %rax
	addq	%rdx, %rax
	leaq	0(,%rax,4), %rdx
	addq	%rdx, %rax
	salq	$2, %rax
	addq	%rcx, %rax
	leaq	.LC62(%rip), %rdx
	movq	%rax, %rcx
	call	strcmp
	testl	%eax, %eax
	jne	.L120
	.loc 1 876 0
	movl	$1, 52(%rbp)
	.loc 1 877 0
	movl	28(%rbp), %eax
	cltq
	movb	$0, 464(%rbp,%rax)
	.loc 1 878 0
	leaq	28(%rbp), %rax
	movq	%rax, %rcx
	call	pop
	.loc 1 879 0
	movq	8(%rbp), %rax
	leaq	104(%rax), %rdx
	leaq	20496(%rbp), %rax
	movq	%rax, %rcx
	call	strcpy
	.loc 1 880 0
	movl	28(%rbp), %eax
	leaq	464(%rbp), %rcx
	movslq	%eax, %rdx
	movq	%rdx, %rax
	salq	$2, %rax
	addq	%rdx, %rax
	leaq	0(,%rax,4), %rdx
	addq	%rdx, %rax
	salq	$2, %rax
	leaq	(%rcx,%rax), %rdx
	leaq	20608(%rbp), %rax
	movq	%rax, %rcx
	call	strcpy
	.loc 1 881 0
	leaq	28(%rbp), %rax
	movq	%rax, %rcx
	call	pop
	.loc 1 882 0
	movl	28(%rbp), %eax
	cltq
	movb	$0, 464(%rbp,%rax)
	.loc 1 883 0
	movq	0(%rbp), %r8
	leaq	20608(%rbp), %rdx
	leaq	20496(%rbp), %rax
	movl	44(%rbp), %ecx
	movl	%ecx, 32(%rsp)
	movl	$3, %r9d
	movq	%rax, %rcx
	call	BuildAssignAndCompareExprStatement
	.loc 1 884 0
	movl	$0, 36(%rbp)
	jmp	.L87
.L120:
	.loc 1 886 0
	movl	28(%rbp), %eax
	leaq	464(%rbp), %rcx
	movslq	%eax, %rdx
	movq	%rdx, %rax
	salq	$2, %rax
	addq	%rdx, %rax
	leaq	0(,%rax,4), %rdx
	addq	%rdx, %rax
	salq	$2, %rax
	addq	%rcx, %rax
	leaq	.LC64(%rip), %rdx
	movq	%rax, %rcx
	call	strcmp
	testl	%eax, %eax
	jne	.L121
	.loc 1 887 0
	movl	$1, 52(%rbp)
	.loc 1 888 0
	movl	28(%rbp), %eax
	cltq
	movb	$0, 464(%rbp,%rax)
	.loc 1 889 0
	leaq	28(%rbp), %rax
	movq	%rax, %rcx
	call	pop
	.loc 1 890 0
	movq	8(%rbp), %rax
	leaq	104(%rax), %rdx
	leaq	20496(%rbp), %rax
	movq	%rax, %rcx
	call	strcpy
	.loc 1 891 0
	movl	28(%rbp), %eax
	leaq	464(%rbp), %rcx
	movslq	%eax, %rdx
	movq	%rdx, %rax
	salq	$2, %rax
	addq	%rdx, %rax
	leaq	0(,%rax,4), %rdx
	addq	%rdx, %rax
	salq	$2, %rax
	leaq	(%rcx,%rax), %rdx
	leaq	20608(%rbp), %rax
	movq	%rax, %rcx
	call	strcpy
	.loc 1 892 0
	leaq	28(%rbp), %rax
	movq	%rax, %rcx
	call	pop
	.loc 1 893 0
	movl	28(%rbp), %eax
	cltq
	movb	$0, 464(%rbp,%rax)
	.loc 1 894 0
	movq	0(%rbp), %r8
	leaq	20608(%rbp), %rdx
	leaq	20496(%rbp), %rax
	movl	44(%rbp), %ecx
	movl	%ecx, 32(%rsp)
	movl	$4, %r9d
	movq	%rax, %rcx
	call	BuildAssignAndCompareExprStatement
	.loc 1 895 0
	movl	$0, 36(%rbp)
	jmp	.L87
.L121:
	.loc 1 897 0
	movl	28(%rbp), %eax
	leaq	464(%rbp), %rcx
	movslq	%eax, %rdx
	movq	%rdx, %rax
	salq	$2, %rax
	addq	%rdx, %rax
	leaq	0(,%rax,4), %rdx
	addq	%rdx, %rax
	salq	$2, %rax
	addq	%rcx, %rax
	leaq	.LC66(%rip), %rdx
	movq	%rax, %rcx
	call	strcmp
	testl	%eax, %eax
	jne	.L122
	.loc 1 899 0
	movl	$1, 52(%rbp)
	.loc 1 900 0
	movl	28(%rbp), %eax
	cltq
	movb	$0, 464(%rbp,%rax)
	.loc 1 901 0
	leaq	28(%rbp), %rax
	movq	%rax, %rcx
	call	pop
	.loc 1 902 0
	movq	8(%rbp), %rax
	leaq	104(%rax), %rdx
	leaq	20496(%rbp), %rax
	movq	%rax, %rcx
	call	strcpy
	.loc 1 903 0
	movl	28(%rbp), %eax
	leaq	464(%rbp), %rcx
	movslq	%eax, %rdx
	movq	%rdx, %rax
	salq	$2, %rax
	addq	%rdx, %rax
	leaq	0(,%rax,4), %rdx
	addq	%rdx, %rax
	salq	$2, %rax
	leaq	(%rcx,%rax), %rdx
	leaq	20608(%rbp), %rax
	movq	%rax, %rcx
	call	strcpy
	.loc 1 904 0
	movl	28(%rbp), %eax
	cltq
	movb	$0, 464(%rbp,%rax)
	.loc 1 905 0
	leaq	28(%rbp), %rax
	movq	%rax, %rcx
	call	pop
	.loc 1 906 0
	movq	0(%rbp), %r8
	leaq	20608(%rbp), %rdx
	leaq	20496(%rbp), %rax
	movl	44(%rbp), %ecx
	movl	%ecx, 32(%rsp)
	movl	$5, %r9d
	movq	%rax, %rcx
	call	BuildAssignAndCompareExprStatement
	.loc 1 907 0
	movl	$0, 36(%rbp)
	jmp	.L87
.L122:
	.loc 1 909 0
	movl	28(%rbp), %eax
	leaq	464(%rbp), %rcx
	movslq	%eax, %rdx
	movq	%rdx, %rax
	salq	$2, %rax
	addq	%rdx, %rax
	leaq	0(,%rax,4), %rdx
	addq	%rdx, %rax
	salq	$2, %rax
	addq	%rcx, %rax
	leaq	.LC70(%rip), %rdx
	movq	%rax, %rcx
	call	strcmp
	testl	%eax, %eax
	jne	.L123
	.loc 1 911 0
	movl	$1, 52(%rbp)
	.loc 1 912 0
	movl	28(%rbp), %eax
	cltq
	movb	$0, 464(%rbp,%rax)
	.loc 1 913 0
	leaq	28(%rbp), %rax
	movq	%rax, %rcx
	call	pop
	.loc 1 914 0
	movq	8(%rbp), %rax
	leaq	104(%rax), %rdx
	leaq	20496(%rbp), %rax
	movq	%rax, %rcx
	call	strcpy
	.loc 1 915 0
	movl	28(%rbp), %eax
	leaq	464(%rbp), %rcx
	movslq	%eax, %rdx
	movq	%rdx, %rax
	salq	$2, %rax
	addq	%rdx, %rax
	leaq	0(,%rax,4), %rdx
	addq	%rdx, %rax
	salq	$2, %rax
	leaq	(%rcx,%rax), %rdx
	leaq	20608(%rbp), %rax
	movq	%rax, %rcx
	call	strcpy
	.loc 1 916 0
	movl	28(%rbp), %eax
	cltq
	movb	$0, 464(%rbp,%rax)
	.loc 1 917 0
	leaq	28(%rbp), %rax
	movq	%rax, %rcx
	call	pop
	.loc 1 918 0
	movq	0(%rbp), %r8
	leaq	20608(%rbp), %rdx
	leaq	20496(%rbp), %rax
	movl	44(%rbp), %ecx
	movl	%ecx, 32(%rsp)
	movl	$6, %r9d
	movq	%rax, %rcx
	call	BuildAssignAndCompareExprStatement
	.loc 1 919 0
	movl	$0, 36(%rbp)
	jmp	.L87
.L123:
	.loc 1 921 0
	movl	28(%rbp), %eax
	leaq	464(%rbp), %rcx
	movslq	%eax, %rdx
	movq	%rdx, %rax
	salq	$2, %rax
	addq	%rdx, %rax
	leaq	0(,%rax,4), %rdx
	addq	%rdx, %rax
	salq	$2, %rax
	addq	%rcx, %rax
	leaq	.LC68(%rip), %rdx
	movq	%rax, %rcx
	call	strcmp
	testl	%eax, %eax
	jne	.L124
	.loc 1 923 0
	movl	$1, 52(%rbp)
	.loc 1 924 0
	movl	28(%rbp), %eax
	cltq
	movb	$0, 464(%rbp,%rax)
	.loc 1 925 0
	leaq	28(%rbp), %rax
	movq	%rax, %rcx
	call	pop
	.loc 1 926 0
	movq	8(%rbp), %rax
	leaq	104(%rax), %rdx
	leaq	20496(%rbp), %rax
	movq	%rax, %rcx
	call	strcpy
	.loc 1 927 0
	movl	28(%rbp), %eax
	leaq	464(%rbp), %rcx
	movslq	%eax, %rdx
	movq	%rdx, %rax
	salq	$2, %rax
	addq	%rdx, %rax
	leaq	0(,%rax,4), %rdx
	addq	%rdx, %rax
	salq	$2, %rax
	leaq	(%rcx,%rax), %rdx
	leaq	20608(%rbp), %rax
	movq	%rax, %rcx
	call	strcpy
	.loc 1 928 0
	movl	28(%rbp), %eax
	cltq
	movb	$0, 464(%rbp,%rax)
	.loc 1 929 0
	leaq	28(%rbp), %rax
	movq	%rax, %rcx
	call	pop
	.loc 1 930 0
	movq	0(%rbp), %r8
	leaq	20608(%rbp), %rdx
	leaq	20496(%rbp), %rax
	movl	44(%rbp), %ecx
	movl	%ecx, 32(%rsp)
	movl	$7, %r9d
	movq	%rax, %rcx
	call	BuildAssignAndCompareExprStatement
	.loc 1 931 0
	movl	$0, 36(%rbp)
	jmp	.L87
.L124:
	.loc 1 933 0
	movl	28(%rbp), %eax
	leaq	464(%rbp), %rcx
	movslq	%eax, %rdx
	movq	%rdx, %rax
	salq	$2, %rax
	addq	%rdx, %rax
	leaq	0(,%rax,4), %rdx
	addq	%rdx, %rax
	salq	$2, %rax
	addq	%rcx, %rax
	leaq	.LC72(%rip), %rdx
	movq	%rax, %rcx
	call	strcmp
	testl	%eax, %eax
	jne	.L125
	.loc 1 935 0
	movl	$1, 52(%rbp)
	.loc 1 936 0
	movl	28(%rbp), %eax
	cltq
	movb	$0, 464(%rbp,%rax)
	.loc 1 937 0
	leaq	28(%rbp), %rax
	movq	%rax, %rcx
	call	pop
	.loc 1 938 0
	movq	8(%rbp), %rax
	leaq	104(%rax), %rdx
	leaq	20496(%rbp), %rax
	movq	%rax, %rcx
	call	strcpy
	.loc 1 939 0
	movl	28(%rbp), %eax
	leaq	464(%rbp), %rcx
	movslq	%eax, %rdx
	movq	%rdx, %rax
	salq	$2, %rax
	addq	%rdx, %rax
	leaq	0(,%rax,4), %rdx
	addq	%rdx, %rax
	salq	$2, %rax
	leaq	(%rcx,%rax), %rdx
	leaq	20608(%rbp), %rax
	movq	%rax, %rcx
	call	strcpy
	.loc 1 940 0
	movl	28(%rbp), %eax
	cltq
	movb	$0, 464(%rbp,%rax)
	.loc 1 941 0
	leaq	28(%rbp), %rax
	movq	%rax, %rcx
	call	pop
	.loc 1 942 0
	movq	0(%rbp), %r8
	leaq	20608(%rbp), %rdx
	leaq	20496(%rbp), %rax
	movl	44(%rbp), %ecx
	movl	%ecx, 32(%rsp)
	movl	$8, %r9d
	movq	%rax, %rcx
	call	BuildAssignAndCompareExprStatement
	.loc 1 943 0
	movl	$0, 36(%rbp)
	jmp	.L87
.L125:
	.loc 1 945 0
	movl	28(%rbp), %eax
	leaq	464(%rbp), %rcx
	movslq	%eax, %rdx
	movq	%rdx, %rax
	salq	$2, %rax
	addq	%rdx, %rax
	leaq	0(,%rax,4), %rdx
	addq	%rdx, %rax
	salq	$2, %rax
	addq	%rcx, %rax
	leaq	.LC74(%rip), %rdx
	movq	%rax, %rcx
	call	strcmp
	testl	%eax, %eax
	jne	.L126
	.loc 1 947 0
	movl	$1, 52(%rbp)
	.loc 1 948 0
	movl	28(%rbp), %eax
	cltq
	movb	$0, 464(%rbp,%rax)
	.loc 1 949 0
	leaq	28(%rbp), %rax
	movq	%rax, %rcx
	call	pop
	.loc 1 950 0
	movq	8(%rbp), %rax
	leaq	104(%rax), %rdx
	leaq	20496(%rbp), %rax
	movq	%rax, %rcx
	call	strcpy
	.loc 1 951 0
	movl	28(%rbp), %eax
	leaq	464(%rbp), %rcx
	movslq	%eax, %rdx
	movq	%rdx, %rax
	salq	$2, %rax
	addq	%rdx, %rax
	leaq	0(,%rax,4), %rdx
	addq	%rdx, %rax
	salq	$2, %rax
	leaq	(%rcx,%rax), %rdx
	leaq	20608(%rbp), %rax
	movq	%rax, %rcx
	call	strcpy
	.loc 1 952 0
	movl	28(%rbp), %eax
	cltq
	movb	$0, 464(%rbp,%rax)
	.loc 1 953 0
	leaq	28(%rbp), %rax
	movq	%rax, %rcx
	call	pop
	.loc 1 954 0
	movq	0(%rbp), %r8
	leaq	20608(%rbp), %rdx
	leaq	20496(%rbp), %rax
	movl	44(%rbp), %ecx
	movl	%ecx, 32(%rsp)
	movl	$9, %r9d
	movq	%rax, %rcx
	call	BuildAssignAndCompareExprStatement
	.loc 1 955 0
	movl	$0, 36(%rbp)
	jmp	.L87
.L126:
	.loc 1 959 0
	leaq	20608(%rbp), %rax
	leaq	.LC46(%rip), %rdx
	movq	%rax, %rcx
	call	strcmp
	testl	%eax, %eax
	jne	.L127
	.loc 1 960 0
	movl	$1, 52(%rbp)
	.loc 1 961 0
	movq	432(%rbp), %rax
	movq	440(%rbp), %rdx
	movq	%rax, -48(%rbp)
	movq	%rdx, -40(%rbp)
	movq	448(%rbp), %rax
	movq	%rax, -32(%rbp)
	leaq	-48(%rbp), %rax
	movq	%rax, %rcx
	call	CheckIfMemberOfStatement
	movl	%eax, 44(%rbp)
	.loc 1 962 0
	movq	8(%rbp), %rax
	leaq	104(%rax), %rcx
	movq	0(%rbp), %r8
	leaq	20496(%rbp), %rax
	movl	44(%rbp), %edx
	movl	%edx, 32(%rsp)
	movl	$1, %r9d
	movq	%rcx, %rdx
	movq	%rax, %rcx
	call	BuildSimpleExpressionStatement
	jmp	.L128
.L127:
	.loc 1 964 0
	leaq	20608(%rbp), %rax
	leaq	.LC48(%rip), %rdx
	movq	%rax, %rcx
	call	strcmp
	testl	%eax, %eax
	jne	.L129
	.loc 1 965 0
	movl	$1, 52(%rbp)
	.loc 1 966 0
	movq	432(%rbp), %rax
	movq	440(%rbp), %rdx
	movq	%rax, -48(%rbp)
	movq	%rdx, -40(%rbp)
	movq	448(%rbp), %rax
	movq	%rax, -32(%rbp)
	leaq	-48(%rbp), %rax
	movq	%rax, %rcx
	call	CheckIfMemberOfStatement
	movl	%eax, 44(%rbp)
	.loc 1 967 0
	movq	8(%rbp), %rax
	leaq	104(%rax), %rcx
	movq	0(%rbp), %r8
	leaq	20496(%rbp), %rax
	movl	44(%rbp), %edx
	movl	%edx, 32(%rsp)
	movl	$2, %r9d
	movq	%rcx, %rdx
	movq	%rax, %rcx
	call	BuildSimpleExpressionStatement
	jmp	.L128
.L129:
	.loc 1 969 0
	leaq	20608(%rbp), %rax
	leaq	.LC50(%rip), %rdx
	movq	%rax, %rcx
	call	strcmp
	testl	%eax, %eax
	jne	.L130
	.loc 1 970 0
	movl	$1, 52(%rbp)
	.loc 1 971 0
	movq	432(%rbp), %rax
	movq	440(%rbp), %rdx
	movq	%rax, -48(%rbp)
	movq	%rdx, -40(%rbp)
	movq	448(%rbp), %rax
	movq	%rax, -32(%rbp)
	leaq	-48(%rbp), %rax
	movq	%rax, %rcx
	call	CheckIfMemberOfStatement
	movl	%eax, 44(%rbp)
	.loc 1 972 0
	movq	8(%rbp), %rax
	leaq	104(%rax), %rcx
	movq	0(%rbp), %r8
	leaq	20496(%rbp), %rax
	movl	44(%rbp), %edx
	movl	%edx, 32(%rsp)
	movl	$3, %r9d
	movq	%rcx, %rdx
	movq	%rax, %rcx
	call	BuildSimpleExpressionStatement
	jmp	.L128
.L130:
	.loc 1 974 0
	leaq	20608(%rbp), %rax
	leaq	.LC52(%rip), %rdx
	movq	%rax, %rcx
	call	strcmp
	testl	%eax, %eax
	jne	.L128
	.loc 1 975 0
	movl	$1, 52(%rbp)
	.loc 1 976 0
	movq	432(%rbp), %rax
	movq	440(%rbp), %rdx
	movq	%rax, -48(%rbp)
	movq	%rdx, -40(%rbp)
	movq	448(%rbp), %rax
	movq	%rax, -32(%rbp)
	leaq	-48(%rbp), %rax
	movq	%rax, %rcx
	call	CheckIfMemberOfStatement
	movl	%eax, 44(%rbp)
	.loc 1 977 0
	movq	8(%rbp), %rax
	leaq	104(%rax), %rcx
	movq	0(%rbp), %r8
	leaq	20496(%rbp), %rax
	movl	44(%rbp), %edx
	movl	%edx, 32(%rsp)
	movl	$4, %r9d
	movq	%rcx, %rdx
	movq	%rax, %rcx
	call	BuildSimpleExpressionStatement
.L128:
	.loc 1 980 0
	leaq	28(%rbp), %rax
	movq	%rax, %rcx
	call	empty
	testl	%eax, %eax
	jne	.L131
	.loc 1 980 0 is_stmt 0 discriminator 2
	cmpl	$0, 52(%rbp)
	jne	.L131
	.loc 1 981 0 is_stmt 1
	leaq	.LC115(%rip), %rcx
	call	puts
	.loc 1 982 0
	movq	8(%rbp), %rax
	addq	$104, %rax
	movq	%rax, %rdx
	leaq	.LC108(%rip), %rcx
	call	printf
	.loc 1 983 0
	movl	28(%rbp), %eax
	addl	$1, %eax
	movl	%eax, 28(%rbp)
	.loc 1 984 0
	movq	8(%rbp), %rax
	leaq	104(%rax), %r8
	movl	28(%rbp), %eax
	leaq	464(%rbp), %rcx
	movslq	%eax, %rdx
	movq	%rdx, %rax
	salq	$2, %rax
	addq	%rdx, %rax
	leaq	0(,%rax,4), %rdx
	addq	%rdx, %rax
	salq	$2, %rax
	addq	%rax, %rcx
	leaq	28(%rbp), %rax
	movq	%rax, %rdx
	call	push
	jmp	.L87
.L131:
	.loc 1 987 0
	leaq	.LC116(%rip), %rcx
	call	puts
	.loc 1 988 0
	movq	432(%rbp), %rax
	movq	440(%rbp), %rdx
	movq	%rax, -48(%rbp)
	movq	%rdx, -40(%rbp)
	movq	448(%rbp), %rax
	movq	%rax, -32(%rbp)
	leaq	-48(%rbp), %rax
	movq	%rax, %rcx
	call	CheckIfMemberOfStatement
	movl	%eax, 44(%rbp)
	.loc 1 989 0
	cmpl	$-1, 44(%rbp)
	je	.L132
	.loc 1 990 0
	movl	44(%rbp), %eax
	movl	%eax, %edx
	leaq	.LC102(%rip), %rcx
	call	printf
	.loc 1 991 0
	cmpl	$6, 44(%rbp)
	jne	.L132
	.loc 1 991 0 is_stmt 0 discriminator 1
	movq	8(%rbp), %rax
	leaq	104(%rax), %rdx
	leaq	20496(%rbp), %rax
	movq	%rax, %rcx
	call	strcpy
.L132:
	.loc 1 993 0 is_stmt 1
	movq	8(%rbp), %rax
	addq	$104, %rax
	movq	%rax, %rdx
	leaq	.LC108(%rip), %rcx
	call	printf
	.loc 1 994 0
	movl	28(%rbp), %eax
	addl	$1, %eax
	movl	%eax, 28(%rbp)
	.loc 1 995 0
	movq	8(%rbp), %rax
	leaq	104(%rax), %r8
	movl	28(%rbp), %eax
	leaq	464(%rbp), %rcx
	movslq	%eax, %rdx
	movq	%rdx, %rax
	salq	$2, %rax
	addq	%rdx, %rax
	leaq	0(,%rax,4), %rdx
	addq	%rdx, %rax
	salq	$2, %rax
	addq	%rax, %rcx
	leaq	28(%rbp), %rax
	movq	%rax, %rdx
	call	push
.L87:
.LBE14:
	.loc 1 1001 0
	movq	8(%rbp), %rax
	addq	$4, %rax
	leaq	.LC117(%rip), %rdx
	movq	%rax, %rcx
	call	strcmp
	testl	%eax, %eax
	jne	.L133
.LBB18:
	.loc 1 1002 0
	leaq	28(%rbp), %rax
	movq	%rax, %rcx
	call	pop
	.loc 1 1003 0
	movl	$0, 76(%rbp)
	.loc 1 1004 0
	movl	28(%rbp), %eax
	leaq	464(%rbp), %rcx
	movslq	%eax, %rdx
	movq	%rdx, %rax
	salq	$2, %rax
	addq	%rdx, %rax
	leaq	0(,%rax,4), %rdx
	addq	%rdx, %rax
	salq	$2, %rax
	addq	%rcx, %rax
	leaq	.LC32(%rip), %rdx
	movq	%rax, %rcx
	call	strcmp
	testl	%eax, %eax
	jne	.L134
	.loc 1 1005 0
	leaq	.LC111(%rip), %rcx
	call	puts
	.loc 1 1006 0
	movq	8(%rbp), %rax
	addq	$104, %rax
	movq	%rax, %rdx
	leaq	.LC108(%rip), %rcx
	call	printf
	.loc 1 1007 0
	movl	28(%rbp), %eax
	addl	$1, %eax
	movl	%eax, 28(%rbp)
	.loc 1 1008 0
	movq	8(%rbp), %rax
	leaq	104(%rax), %r8
	movl	28(%rbp), %eax
	leaq	464(%rbp), %rcx
	movslq	%eax, %rdx
	movq	%rdx, %rax
	salq	$2, %rax
	addq	%rdx, %rax
	leaq	0(,%rax,4), %rdx
	addq	%rdx, %rax
	salq	$2, %rax
	addq	%rax, %rcx
	leaq	28(%rbp), %rax
	movq	%rax, %rdx
	call	push
	jmp	.L133
.L134:
	.loc 1 1010 0
	movl	28(%rbp), %eax
	leaq	464(%rbp), %rcx
	movslq	%eax, %rdx
	movq	%rdx, %rax
	salq	$2, %rax
	addq	%rdx, %rax
	leaq	0(,%rax,4), %rdx
	addq	%rdx, %rax
	salq	$2, %rax
	addq	%rcx, %rax
	leaq	.LC26(%rip), %rdx
	movq	%rax, %rcx
	call	strcmp
	testl	%eax, %eax
	jne	.L135
	.loc 1 1011 0
	movl	$1, 76(%rbp)
	.loc 1 1012 0
	movl	28(%rbp), %eax
	cltq
	movb	$0, 464(%rbp,%rax)
	.loc 1 1013 0
	leaq	28(%rbp), %rax
	movq	%rax, %rcx
	call	pop
	.loc 1 1014 0
	movl	28(%rbp), %eax
	leaq	464(%rbp), %rcx
	movslq	%eax, %rdx
	movq	%rdx, %rax
	salq	$2, %rax
	addq	%rdx, %rax
	leaq	0(,%rax,4), %rdx
	addq	%rdx, %rax
	salq	$2, %rax
	leaq	(%rcx,%rax), %rdx
	leaq	20496(%rbp), %rax
	movq	%rax, %rcx
	call	strcpy
	.loc 1 1015 0
	movl	28(%rbp), %eax
	cltq
	movb	$0, 464(%rbp,%rax)
	.loc 1 1016 0
	leaq	28(%rbp), %rax
	movq	%rax, %rcx
	call	pop
	.loc 1 1017 0
	movl	28(%rbp), %eax
	cltq
	movb	$0, 464(%rbp,%rax)
	.loc 1 1018 0
	movq	8(%rbp), %rax
	leaq	104(%rax), %rcx
	leaq	20496(%rbp), %r8
	movq	0(%rbp), %rax
	movl	44(%rbp), %edx
	movl	%edx, 32(%rsp)
	movl	$4, %r9d
	movq	%rax, %rdx
	call	BuildDeclarationExprStatement
	jmp	.L133
.L135:
	.loc 1 1020 0
	movl	28(%rbp), %eax
	leaq	464(%rbp), %rcx
	movslq	%eax, %rdx
	movq	%rdx, %rax
	salq	$2, %rax
	addq	%rdx, %rax
	leaq	0(,%rax,4), %rdx
	addq	%rdx, %rax
	salq	$2, %rax
	addq	%rcx, %rax
	leaq	.LC8(%rip), %rdx
	movq	%rax, %rcx
	call	strcmp
	testl	%eax, %eax
	je	.L133
	.loc 1 1023 0
	leaq	28(%rbp), %rax
	movq	%rax, %rcx
	call	empty
	testl	%eax, %eax
	jne	.L133
	.loc 1 1023 0 is_stmt 0 discriminator 2
	cmpl	$0, 76(%rbp)
	jne	.L133
	.loc 1 1024 0 is_stmt 1
	leaq	.LC118(%rip), %rcx
	call	puts
	.loc 1 1025 0
	movq	8(%rbp), %rax
	addq	$104, %rax
	movq	%rax, %rdx
	leaq	.LC108(%rip), %rcx
	call	printf
	.loc 1 1026 0
	movl	28(%rbp), %eax
	addl	$1, %eax
	movl	%eax, 28(%rbp)
	.loc 1 1027 0
	movq	8(%rbp), %rax
	leaq	104(%rax), %r8
	movl	28(%rbp), %eax
	leaq	464(%rbp), %rcx
	movslq	%eax, %rdx
	movq	%rdx, %rax
	salq	$2, %rax
	addq	%rdx, %rax
	leaq	0(,%rax,4), %rdx
	addq	%rdx, %rax
	salq	$2, %rax
	addq	%rax, %rcx
	leaq	28(%rbp), %rax
	movq	%rax, %rdx
	call	push
.L133:
.LBE18:
	.loc 1 1034 0
	movq	8(%rbp), %rax
	addq	$4, %rax
	leaq	.LC119(%rip), %rdx
	movq	%rax, %rcx
	call	strcmp
	testl	%eax, %eax
	jne	.L136
	.loc 1 1035 0
	movq	8(%rbp), %rax
	addq	$104, %rax
	leaq	.LC120(%rip), %rdx
	movq	%rax, %rcx
	call	strcmp
	testl	%eax, %eax
	jne	.L137
.LBB19:
	.loc 1 1036 0
	movl	$-1, 64(%rsp)
	movq	$0, 56(%rsp)
	movq	$0, 48(%rsp)
	movq	$0, 40(%rsp)
	movq	$0, 32(%rsp)
	movl	$0, %r9d
	movl	$0, %r8d
	movl	$0, %edx
	movl	$11, %ecx
	call	stmt_create
	movq	%rax, 112(%rbp)
	.loc 1 1037 0
	movq	112(%rbp), %rdx
	movq	0(%rbp), %rax
	movl	$0, %r9d
	movq	%rdx, %r8
	movl	$0, %edx
	movq	%rax, %rcx
	call	push_commandList
	.loc 1 1038 0
	leaq	.LC3(%rip), %rcx
	call	puts
	.loc 1 1039 0
	movq	8(%rbp), %rax
	movq	208(%rax), %rax
	movq	%rax, 8(%rbp)
	.loc 1 1040 0
	jmp	.L4
.L137:
.LBE19:
	.loc 1 1042 0
	movq	8(%rbp), %rax
	addq	$104, %rax
	leaq	.LC121(%rip), %rdx
	movq	%rax, %rcx
	call	strcmp
	testl	%eax, %eax
	jne	.L138
.LBB20:
	.loc 1 1043 0
	movl	$-1, 64(%rsp)
	movq	$0, 56(%rsp)
	movq	$0, 48(%rsp)
	movq	$0, 40(%rsp)
	movq	$0, 32(%rsp)
	movl	$0, %r9d
	movl	$0, %r8d
	movl	$0, %edx
	movl	$12, %ecx
	call	stmt_create
	movq	%rax, 104(%rbp)
	.loc 1 1044 0
	movq	104(%rbp), %rdx
	movq	0(%rbp), %rax
	movl	$0, %r9d
	movq	%rdx, %r8
	movl	$0, %edx
	movq	%rax, %rcx
	call	push_commandList
	.loc 1 1045 0
	leaq	.LC3(%rip), %rcx
	call	puts
	.loc 1 1046 0
	movq	8(%rbp), %rax
	movq	208(%rax), %rax
	movq	%rax, 8(%rbp)
	.loc 1 1047 0
	jmp	.L4
.L138:
.LBE20:
	.loc 1 1049 0
	movq	8(%rbp), %rax
	addq	$104, %rax
	leaq	.LC122(%rip), %rdx
	movq	%rax, %rcx
	call	strcmp
	testl	%eax, %eax
	jne	.L139
	.loc 1 1050 0
	leaq	28(%rbp), %rax
	movq	%rax, %rcx
	call	pop
	.loc 1 1051 0
	movl	28(%rbp), %eax
	leaq	464(%rbp), %rcx
	movslq	%eax, %rdx
	movq	%rdx, %rax
	salq	$2, %rax
	addq	%rdx, %rax
	leaq	0(,%rax,4), %rdx
	addq	%rdx, %rax
	salq	$2, %rax
	leaq	(%rcx,%rax), %rdx
	leaq	20496(%rbp), %rax
	movq	%rax, %rcx
	call	strcpy
	.loc 1 1052 0
	movl	28(%rbp), %eax
	cltq
	movb	$0, 464(%rbp,%rax)
	.loc 1 1053 0
	leaq	28(%rbp), %rax
	movq	%rax, %rcx
	call	pop
	.loc 1 1054 0
	movl	28(%rbp), %eax
	cltq
	movb	$0, 464(%rbp,%rax)
	.loc 1 1055 0
	leaq	20496(%rbp), %rcx
	movq	0(%rbp), %rdx
	movq	8(%rbp), %rax
	movq	%rcx, %r8
	movq	%rax, %rcx
	call	BuildNewStatement
	.loc 1 1056 0
	leaq	.LC3(%rip), %rcx
	call	puts
	.loc 1 1057 0
	movq	8(%rbp), %rax
	movq	208(%rax), %rax
	movq	%rax, 8(%rbp)
	.loc 1 1058 0
	jmp	.L4
.L139:
	.loc 1 1060 0
	movq	8(%rbp), %rax
	addq	$104, %rax
	leaq	.LC123(%rip), %rdx
	movq	%rax, %rcx
	call	strcmp
	testl	%eax, %eax
	jne	.L140
	.loc 1 1061 0
	leaq	28(%rbp), %rax
	movq	%rax, %rcx
	call	pop
	.loc 1 1062 0
	movl	28(%rbp), %eax
	leaq	464(%rbp), %rcx
	movslq	%eax, %rdx
	movq	%rdx, %rax
	salq	$2, %rax
	addq	%rdx, %rax
	leaq	0(,%rax,4), %rdx
	addq	%rdx, %rax
	salq	$2, %rax
	addq	%rcx, %rax
	leaq	.LC24(%rip), %rdx
	movq	%rax, %rcx
	call	strcmp
	testl	%eax, %eax
	jne	.L141
	.loc 1 1063 0
	movl	28(%rbp), %eax
	cltq
	movb	$0, 464(%rbp,%rax)
	.loc 1 1064 0
	leaq	28(%rbp), %rax
	movq	%rax, %rcx
	call	pop
	.loc 1 1065 0
	movl	28(%rbp), %eax
	cltq
	movb	$0, 464(%rbp,%rax)
	.loc 1 1066 0
	leaq	28(%rbp), %rax
	movq	%rax, %rcx
	call	pop
	.loc 1 1067 0
	movl	28(%rbp), %eax
	leaq	464(%rbp), %rcx
	movslq	%eax, %rdx
	movq	%rdx, %rax
	salq	$2, %rax
	addq	%rdx, %rax
	leaq	0(,%rax,4), %rdx
	addq	%rdx, %rax
	salq	$2, %rax
	leaq	(%rcx,%rax), %rdx
	leaq	20496(%rbp), %rax
	movq	%rax, %rcx
	call	strcpy
	.loc 1 1068 0
	movl	28(%rbp), %eax
	cltq
	movb	$0, 464(%rbp,%rax)
	.loc 1 1069 0
	leaq	28(%rbp), %rax
	movq	%rax, %rcx
	call	pop
	.loc 1 1070 0
	movl	28(%rbp), %eax
	cltq
	movb	$0, 464(%rbp,%rax)
	.loc 1 1071 0
	movq	8(%rbp), %rax
	leaq	104(%rax), %rcx
	leaq	20496(%rbp), %r8
	movq	0(%rbp), %rax
	movl	44(%rbp), %edx
	movl	%edx, 32(%rsp)
	movl	$7, %r9d
	movq	%rax, %rdx
	call	BuildDeclarationExprStatement
	jmp	.L136
.L141:
	.loc 1 1073 0
	movl	28(%rbp), %eax
	leaq	464(%rbp), %rcx
	movslq	%eax, %rdx
	movq	%rdx, %rax
	salq	$2, %rax
	addq	%rdx, %rax
	leaq	0(,%rax,4), %rdx
	addq	%rdx, %rax
	salq	$2, %rax
	addq	%rcx, %rax
	leaq	.LC22(%rip), %rdx
	movq	%rax, %rcx
	call	strcmp
	testl	%eax, %eax
	jne	.L143
	.loc 1 1074 0
	movl	28(%rbp), %eax
	cltq
	movb	$0, 464(%rbp,%rax)
	.loc 1 1075 0
	leaq	28(%rbp), %rax
	movq	%rax, %rcx
	call	pop
	.loc 1 1076 0
	movl	28(%rbp), %eax
	cltq
	movb	$0, 464(%rbp,%rax)
	.loc 1 1077 0
	leaq	28(%rbp), %rax
	movq	%rax, %rcx
	call	pop
	.loc 1 1078 0
	movl	28(%rbp), %eax
	leaq	464(%rbp), %rcx
	movslq	%eax, %rdx
	movq	%rdx, %rax
	salq	$2, %rax
	addq	%rdx, %rax
	leaq	0(,%rax,4), %rdx
	addq	%rdx, %rax
	salq	$2, %rax
	leaq	(%rcx,%rax), %rdx
	leaq	20496(%rbp), %rax
	movq	%rax, %rcx
	call	strcpy
	.loc 1 1079 0
	movl	28(%rbp), %eax
	cltq
	movb	$0, 464(%rbp,%rax)
	.loc 1 1080 0
	leaq	28(%rbp), %rax
	movq	%rax, %rcx
	call	pop
	.loc 1 1081 0
	movl	28(%rbp), %eax
	cltq
	movb	$0, 464(%rbp,%rax)
	.loc 1 1082 0
	movq	8(%rbp), %rax
	leaq	104(%rax), %rcx
	leaq	20496(%rbp), %r8
	movq	0(%rbp), %rax
	movl	44(%rbp), %edx
	movl	%edx, 32(%rsp)
	movl	$8, %r9d
	movq	%rax, %rdx
	call	BuildDeclarationExprStatement
	jmp	.L136
.L143:
	.loc 1 1084 0
	movl	28(%rbp), %eax
	leaq	464(%rbp), %rcx
	movslq	%eax, %rdx
	movq	%rdx, %rax
	salq	$2, %rax
	addq	%rdx, %rax
	leaq	0(,%rax,4), %rdx
	addq	%rdx, %rax
	salq	$2, %rax
	addq	%rcx, %rax
	leaq	.LC26(%rip), %rdx
	movq	%rax, %rcx
	call	strcmp
	testl	%eax, %eax
	jne	.L144
	.loc 1 1085 0
	movl	28(%rbp), %eax
	cltq
	movb	$0, 464(%rbp,%rax)
	.loc 1 1086 0
	leaq	28(%rbp), %rax
	movq	%rax, %rcx
	call	pop
	.loc 1 1087 0
	movl	28(%rbp), %eax
	cltq
	movb	$0, 464(%rbp,%rax)
	.loc 1 1088 0
	leaq	28(%rbp), %rax
	movq	%rax, %rcx
	call	pop
	.loc 1 1089 0
	movl	28(%rbp), %eax
	leaq	464(%rbp), %rcx
	movslq	%eax, %rdx
	movq	%rdx, %rax
	salq	$2, %rax
	addq	%rdx, %rax
	leaq	0(,%rax,4), %rdx
	addq	%rdx, %rax
	salq	$2, %rax
	leaq	(%rcx,%rax), %rdx
	leaq	20496(%rbp), %rax
	movq	%rax, %rcx
	call	strcpy
	.loc 1 1090 0
	movl	28(%rbp), %eax
	cltq
	movb	$0, 464(%rbp,%rax)
	.loc 1 1091 0
	leaq	28(%rbp), %rax
	movq	%rax, %rcx
	call	pop
	.loc 1 1092 0
	movl	28(%rbp), %eax
	cltq
	movb	$0, 464(%rbp,%rax)
	.loc 1 1093 0
	movq	8(%rbp), %rax
	leaq	104(%rax), %rcx
	leaq	20496(%rbp), %r8
	movq	0(%rbp), %rax
	movl	44(%rbp), %edx
	movl	%edx, 32(%rsp)
	movl	$9, %r9d
	movq	%rax, %rdx
	call	BuildDeclarationExprStatement
	jmp	.L136
.L144:
	.loc 1 1095 0
	movl	28(%rbp), %eax
	leaq	464(%rbp), %rcx
	movslq	%eax, %rdx
	movq	%rdx, %rax
	salq	$2, %rax
	addq	%rdx, %rax
	leaq	0(,%rax,4), %rdx
	addq	%rdx, %rax
	salq	$2, %rax
	addq	%rcx, %rax
	leaq	.LC20(%rip), %rdx
	movq	%rax, %rcx
	call	strcmp
	testl	%eax, %eax
	jne	.L145
	.loc 1 1096 0
	movl	28(%rbp), %eax
	cltq
	movb	$0, 464(%rbp,%rax)
	.loc 1 1097 0
	leaq	28(%rbp), %rax
	movq	%rax, %rcx
	call	pop
	.loc 1 1098 0
	movl	28(%rbp), %eax
	cltq
	movb	$0, 464(%rbp,%rax)
	.loc 1 1099 0
	leaq	28(%rbp), %rax
	movq	%rax, %rcx
	call	pop
	.loc 1 1100 0
	movl	28(%rbp), %eax
	leaq	464(%rbp), %rcx
	movslq	%eax, %rdx
	movq	%rdx, %rax
	salq	$2, %rax
	addq	%rdx, %rax
	leaq	0(,%rax,4), %rdx
	addq	%rdx, %rax
	salq	$2, %rax
	leaq	(%rcx,%rax), %rdx
	leaq	20496(%rbp), %rax
	movq	%rax, %rcx
	call	strcpy
	.loc 1 1101 0
	movl	28(%rbp), %eax
	cltq
	movb	$0, 464(%rbp,%rax)
	.loc 1 1102 0
	leaq	28(%rbp), %rax
	movq	%rax, %rcx
	call	pop
	.loc 1 1103 0
	movl	28(%rbp), %eax
	cltq
	movb	$0, 464(%rbp,%rax)
	.loc 1 1104 0
	movq	8(%rbp), %rax
	leaq	104(%rax), %rcx
	leaq	20496(%rbp), %r8
	movq	0(%rbp), %rax
	movl	44(%rbp), %edx
	movl	%edx, 32(%rsp)
	movl	$6, %r9d
	movq	%rax, %rdx
	call	BuildDeclarationExprStatement
	jmp	.L136
.L145:
	.loc 1 1106 0
	movl	28(%rbp), %eax
	leaq	464(%rbp), %rcx
	movslq	%eax, %rdx
	movq	%rdx, %rax
	salq	$2, %rax
	addq	%rdx, %rax
	leaq	0(,%rax,4), %rdx
	addq	%rdx, %rax
	salq	$2, %rax
	addq	%rcx, %rax
	leaq	.LC30(%rip), %rdx
	movq	%rax, %rcx
	call	strcmp
	testl	%eax, %eax
	jne	.L146
	.loc 1 1106 0 is_stmt 0 discriminator 1
	cmpl	$1, 48(%rbp)
	jne	.L146
	.loc 1 1107 0 is_stmt 1
	movl	$0, 48(%rbp)
	.loc 1 1108 0
	movl	28(%rbp), %eax
	cltq
	movb	$0, 464(%rbp,%rax)
	.loc 1 1109 0
	leaq	28(%rbp), %rax
	movq	%rax, %rcx
	call	pop
	.loc 1 1110 0
	movl	28(%rbp), %eax
	cltq
	movb	$0, 464(%rbp,%rax)
	.loc 1 1111 0
	leaq	28(%rbp), %rax
	movq	%rax, %rcx
	call	pop
	.loc 1 1112 0
	movl	28(%rbp), %eax
	leaq	464(%rbp), %rcx
	movslq	%eax, %rdx
	movq	%rdx, %rax
	salq	$2, %rax
	addq	%rdx, %rax
	leaq	0(,%rax,4), %rdx
	addq	%rdx, %rax
	salq	$2, %rax
	leaq	(%rcx,%rax), %rdx
	leaq	20496(%rbp), %rax
	movq	%rax, %rcx
	call	strcpy
	.loc 1 1113 0
	movl	28(%rbp), %eax
	cltq
	movb	$0, 464(%rbp,%rax)
	.loc 1 1114 0
	leaq	28(%rbp), %rax
	movq	%rax, %rcx
	call	pop
	.loc 1 1115 0
	movl	28(%rbp), %eax
	cltq
	movb	$0, 464(%rbp,%rax)
	.loc 1 1116 0
	movq	8(%rbp), %rax
	leaq	104(%rax), %rcx
	leaq	20496(%rbp), %r8
	movq	0(%rbp), %rax
	movl	44(%rbp), %edx
	movl	%edx, 32(%rsp)
	movl	$11, %r9d
	movq	%rax, %rdx
	call	BuildDeclarationExprStatement
	jmp	.L136
.L146:
	.loc 1 1118 0
	movl	28(%rbp), %eax
	leaq	464(%rbp), %rcx
	movslq	%eax, %rdx
	movq	%rdx, %rax
	salq	$2, %rax
	addq	%rdx, %rax
	leaq	0(,%rax,4), %rdx
	addq	%rdx, %rax
	salq	$2, %rax
	addq	%rcx, %rax
	leaq	.LC30(%rip), %rdx
	movq	%rax, %rcx
	call	strcmp
	testl	%eax, %eax
	jne	.L136
	.loc 1 1118 0 is_stmt 0 discriminator 1
	cmpl	$0, 48(%rbp)
	jne	.L136
	.loc 1 1119 0 is_stmt 1
	movl	28(%rbp), %eax
	cltq
	movb	$0, 464(%rbp,%rax)
	.loc 1 1120 0
	leaq	28(%rbp), %rax
	movq	%rax, %rcx
	call	pop
	.loc 1 1121 0
	movl	28(%rbp), %eax
	leaq	464(%rbp), %rcx
	movslq	%eax, %rdx
	movq	%rdx, %rax
	salq	$2, %rax
	addq	%rdx, %rax
	leaq	0(,%rax,4), %rdx
	addq	%rdx, %rax
	salq	$2, %rax
	leaq	(%rcx,%rax), %rdx
	leaq	20496(%rbp), %rax
	movq	%rax, %rcx
	call	strcpy
	.loc 1 1122 0
	movl	28(%rbp), %eax
	cltq
	movb	$0, 464(%rbp,%rax)
	.loc 1 1123 0
	leaq	28(%rbp), %rax
	movq	%rax, %rcx
	call	pop
	.loc 1 1124 0
	movl	28(%rbp), %eax
	cltq
	movb	$0, 464(%rbp,%rax)
	.loc 1 1125 0
	movq	8(%rbp), %rax
	leaq	104(%rax), %rcx
	leaq	20496(%rbp), %r8
	movq	0(%rbp), %rax
	movl	44(%rbp), %edx
	movl	%edx, 32(%rsp)
	movl	$12, %r9d
	movq	%rax, %rdx
	call	BuildDeclarationExprStatement
	jmp	.L136
.L140:
	.loc 1 1128 0
	movq	8(%rbp), %rax
	addq	$104, %rax
	leaq	.LC124(%rip), %rdx
	movq	%rax, %rcx
	call	strcmp
	testl	%eax, %eax
	je	.L147
	.loc 1 1128 0 is_stmt 0 discriminator 1
	movq	8(%rbp), %rax
	addq	$104, %rax
	leaq	.LC125(%rip), %rdx
	movq	%rax, %rcx
	call	strcmp
	testl	%eax, %eax
	jne	.L136
.L147:
	.loc 1 1129 0 is_stmt 1
	leaq	28(%rbp), %rax
	movq	%rax, %rcx
	call	pop
	.loc 1 1130 0
	movl	28(%rbp), %eax
	leaq	464(%rbp), %rcx
	movslq	%eax, %rdx
	movq	%rdx, %rax
	salq	$2, %rax
	addq	%rdx, %rax
	leaq	0(,%rax,4), %rdx
	addq	%rdx, %rax
	salq	$2, %rax
	addq	%rcx, %rax
	leaq	.LC28(%rip), %rdx
	movq	%rax, %rcx
	call	strcmp
	testl	%eax, %eax
	jne	.L136
	.loc 1 1131 0
	movl	28(%rbp), %eax
	cltq
	movb	$0, 464(%rbp,%rax)
	.loc 1 1132 0
	leaq	28(%rbp), %rax
	movq	%rax, %rcx
	call	pop
	.loc 1 1133 0
	movl	28(%rbp), %eax
	leaq	464(%rbp), %rcx
	movslq	%eax, %rdx
	movq	%rdx, %rax
	salq	$2, %rax
	addq	%rdx, %rax
	leaq	0(,%rax,4), %rdx
	addq	%rdx, %rax
	salq	$2, %rax
	leaq	(%rcx,%rax), %rdx
	leaq	20496(%rbp), %rax
	movq	%rax, %rcx
	call	strcpy
	.loc 1 1134 0
	movl	28(%rbp), %eax
	cltq
	movb	$0, 464(%rbp,%rax)
	.loc 1 1135 0
	leaq	28(%rbp), %rax
	movq	%rax, %rcx
	call	pop
	.loc 1 1136 0
	movl	28(%rbp), %eax
	cltq
	movb	$0, 464(%rbp,%rax)
	.loc 1 1137 0
	movq	8(%rbp), %rax
	leaq	104(%rax), %rcx
	leaq	20496(%rbp), %r8
	movq	0(%rbp), %rax
	movl	44(%rbp), %edx
	movl	%edx, 32(%rsp)
	movl	$10, %r9d
	movq	%rax, %rdx
	call	BuildDeclarationExprStatement
.L136:
	.loc 1 1145 0
	movq	8(%rbp), %rax
	addq	$4, %rax
	leaq	.LC114(%rip), %rdx
	movq	%rax, %rcx
	call	strcmp
	testl	%eax, %eax
	jne	.L148
	.loc 1 1147 0
	movl	28(%rbp), %eax
	testl	%eax, %eax
	je	.L149
	.loc 1 1149 0
	movl	452(%rbp), %eax
	cmpl	$1, %eax
	jne	.L150
	.loc 1 1150 0
	leaq	28(%rbp), %rax
	movq	%rax, %rcx
	call	pop
	.loc 1 1151 0
	movl	28(%rbp), %eax
	leaq	464(%rbp), %rcx
	movslq	%eax, %rdx
	movq	%rdx, %rax
	salq	$2, %rax
	addq	%rdx, %rax
	leaq	0(,%rax,4), %rdx
	addq	%rdx, %rax
	salq	$2, %rax
	leaq	(%rcx,%rax), %rdx
	leaq	20608(%rbp), %rax
	movq	%rax, %rcx
	call	strcpy
.L150:
	.loc 1 1154 0
	cmpl	$1, 36(%rbp)
	jne	.L151
	.loc 1 1156 0
	leaq	.LC3(%rip), %rcx
	call	puts
	.loc 1 1157 0
	movq	8(%rbp), %rax
	movq	208(%rax), %rax
	movq	%rax, 8(%rbp)
	.loc 1 1158 0
	jmp	.L4
.L151:
	.loc 1 1161 0
	leaq	28(%rbp), %rax
	movq	%rax, %rcx
	call	pop
	.loc 1 1162 0
	movl	28(%rbp), %eax
	leaq	464(%rbp), %rcx
	movslq	%eax, %rdx
	movq	%rdx, %rax
	salq	$2, %rax
	addq	%rdx, %rax
	leaq	0(,%rax,4), %rdx
	addq	%rdx, %rax
	salq	$2, %rax
	addq	%rcx, %rax
	leaq	.LC33(%rip), %rdx
	movq	%rax, %rcx
	call	strcmp
	testl	%eax, %eax
	jne	.L152
	.loc 1 1163 0
	leaq	.LC126(%rip), %rcx
	call	puts
	.loc 1 1164 0
	movl	28(%rbp), %eax
	cltq
	movb	$0, 464(%rbp,%rax)
	.loc 1 1165 0
	leaq	.LC3(%rip), %rcx
	call	puts
	.loc 1 1166 0
	movq	8(%rbp), %rax
	movq	208(%rax), %rax
	movq	%rax, 8(%rbp)
	.loc 1 1168 0
	movl	$1, 32(%rbp)
	.loc 1 1169 0
	jmp	.L4
.L152:
	.loc 1 1172 0
	movl	28(%rbp), %eax
	leaq	464(%rbp), %rcx
	movslq	%eax, %rdx
	movq	%rdx, %rax
	salq	$2, %rax
	addq	%rdx, %rax
	leaq	0(,%rax,4), %rdx
	addq	%rdx, %rax
	salq	$2, %rax
	addq	%rcx, %rax
	leaq	.LC12(%rip), %rdx
	movq	%rax, %rcx
	call	strcmp
	testl	%eax, %eax
	jne	.L153
	.loc 1 1173 0
	leaq	.LC127(%rip), %rcx
	call	puts
	.loc 1 1174 0
	movq	8(%rbp), %rax
	movq	208(%rax), %rax
	movq	%rax, 8(%rbp)
	.loc 1 1175 0
	movl	28(%rbp), %eax
	cltq
	movb	$0, 464(%rbp,%rax)
	.loc 1 1176 0
	movq	8(%rbp), %rax
	leaq	104(%rax), %rcx
	movq	0(%rbp), %rax
	movl	$6, %r8d
	movq	%rax, %rdx
	call	BuildSingleExprStatement
	.loc 1 1177 0
	leaq	.LC3(%rip), %rcx
	call	puts
	.loc 1 1178 0
	movq	8(%rbp), %rax
	movq	208(%rax), %rax
	movq	%rax, 8(%rbp)
	.loc 1 1179 0
	jmp	.L4
.L153:
	.loc 1 1182 0
	movl	28(%rbp), %eax
	cltq
	movb	$0, 464(%rbp,%rax)
	.loc 1 1183 0
	movl	28(%rbp), %eax
	leaq	464(%rbp), %rcx
	movslq	%eax, %rdx
	movq	%rdx, %rax
	salq	$2, %rax
	addq	%rdx, %rax
	leaq	0(,%rax,4), %rdx
	addq	%rdx, %rax
	salq	$2, %rax
	leaq	(%rcx,%rax), %rdx
	leaq	20496(%rbp), %rax
	movq	%rax, %rcx
	call	strcpy
	.loc 1 1184 0
	movl	28(%rbp), %eax
	cltq
	movb	$0, 464(%rbp,%rax)
	.loc 1 1185 0
	leaq	28(%rbp), %rax
	movq	%rax, %rcx
	call	pop
	.loc 1 1187 0
	movl	28(%rbp), %eax
	leaq	464(%rbp), %rcx
	movslq	%eax, %rdx
	movq	%rdx, %rax
	salq	$2, %rax
	addq	%rdx, %rax
	leaq	0(,%rax,4), %rdx
	addq	%rdx, %rax
	salq	$2, %rax
	addq	%rcx, %rax
	movzbl	(%rax), %eax
	testb	%al, %al
	jne	.L154
	.loc 1 1188 0
	jmp	.L4
.L154:
	.loc 1 1191 0
	movl	28(%rbp), %eax
	leaq	464(%rbp), %rcx
	movslq	%eax, %rdx
	movq	%rdx, %rax
	salq	$2, %rax
	addq	%rdx, %rax
	leaq	0(,%rax,4), %rdx
	addq	%rdx, %rax
	salq	$2, %rax
	addq	%rcx, %rax
	leaq	.LC32(%rip), %rdx
	movq	%rax, %rcx
	call	strcmp
	testl	%eax, %eax
	jne	.L155
	.loc 1 1192 0
	leaq	.LC128(%rip), %rcx
	call	puts
	.loc 1 1193 0
	movq	8(%rbp), %rax
	movq	208(%rax), %rax
	movq	%rax, 8(%rbp)
	.loc 1 1194 0
	movq	8(%rbp), %rax
	addq	$104, %rax
	leaq	.LC22(%rip), %rdx
	movq	%rax, %rcx
	call	strcmp
	testl	%eax, %eax
	jne	.L156
.LBB21:
	.loc 1 1195 0
	movl	$0, %r8d
	movl	$0, %edx
	movl	$3, %ecx
	call	type_create
	movq	%rax, 288(%rbp)
	.loc 1 1196 0
	movq	288(%rbp), %rdx
	leaq	20496(%rbp), %rax
	movl	$0, %r9d
	movl	$0, %r8d
	movq	%rax, %rcx
	call	decl_create
	movq	%rax, 296(%rbp)
	.loc 1 1197 0
	movq	296(%rbp), %rax
	movl	44(%rbp), %edx
	movl	%edx, 64(%rsp)
	movq	$0, 56(%rsp)
	movq	$0, 48(%rsp)
	movq	$0, 40(%rsp)
	movq	$0, 32(%rsp)
	movl	$0, %r9d
	movl	$0, %r8d
	movq	%rax, %rdx
	movl	$0, %ecx
	call	stmt_create
	movq	%rax, 304(%rbp)
	.loc 1 1198 0
	movq	304(%rbp), %rdx
	movq	0(%rbp), %rax
	movl	$0, %r9d
	movq	%rdx, %r8
	movl	$0, %edx
	movq	%rax, %rcx
	call	push_commandList
.LBE21:
	jmp	.L149
.L156:
	.loc 1 1200 0
	movq	8(%rbp), %rax
	addq	$104, %rax
	leaq	.LC20(%rip), %rdx
	movq	%rax, %rcx
	call	strcmp
	testl	%eax, %eax
	jne	.L158
.LBB22:
	.loc 1 1201 0
	movl	$0, %r8d
	movl	$0, %edx
	movl	$4, %ecx
	call	type_create
	movq	%rax, 264(%rbp)
	.loc 1 1202 0
	movq	264(%rbp), %rdx
	leaq	20496(%rbp), %rax
	movl	$0, %r9d
	movl	$0, %r8d
	movq	%rax, %rcx
	call	decl_create
	movq	%rax, 272(%rbp)
	.loc 1 1203 0
	movq	272(%rbp), %rax
	movl	44(%rbp), %edx
	movl	%edx, 64(%rsp)
	movq	$0, 56(%rsp)
	movq	$0, 48(%rsp)
	movq	$0, 40(%rsp)
	movq	$0, 32(%rsp)
	movl	$0, %r9d
	movl	$0, %r8d
	movq	%rax, %rdx
	movl	$0, %ecx
	call	stmt_create
	movq	%rax, 280(%rbp)
	.loc 1 1204 0
	movq	280(%rbp), %rdx
	movq	0(%rbp), %rax
	movl	$0, %r9d
	movq	%rdx, %r8
	movl	$0, %edx
	movq	%rax, %rcx
	call	push_commandList
.LBE22:
	jmp	.L149
.L158:
	.loc 1 1206 0
	movq	8(%rbp), %rax
	addq	$104, %rax
	leaq	.LC24(%rip), %rdx
	movq	%rax, %rcx
	call	strcmp
	testl	%eax, %eax
	jne	.L159
.LBB23:
	.loc 1 1207 0
	movl	$0, %r8d
	movl	$0, %edx
	movl	$5, %ecx
	call	type_create
	movq	%rax, 240(%rbp)
	.loc 1 1208 0
	movq	240(%rbp), %rdx
	leaq	20496(%rbp), %rax
	movl	$0, %r9d
	movl	$0, %r8d
	movq	%rax, %rcx
	call	decl_create
	movq	%rax, 248(%rbp)
	.loc 1 1209 0
	movq	248(%rbp), %rax
	movl	44(%rbp), %edx
	movl	%edx, 64(%rsp)
	movq	$0, 56(%rsp)
	movq	$0, 48(%rsp)
	movq	$0, 40(%rsp)
	movq	$0, 32(%rsp)
	movl	$0, %r9d
	movl	$0, %r8d
	movq	%rax, %rdx
	movl	$0, %ecx
	call	stmt_create
	movq	%rax, 256(%rbp)
	.loc 1 1210 0
	movq	256(%rbp), %rdx
	movq	0(%rbp), %rax
	movl	$0, %r9d
	movq	%rdx, %r8
	movl	$0, %edx
	movq	%rax, %rcx
	call	push_commandList
.LBE23:
	jmp	.L149
.L159:
	.loc 1 1212 0
	movq	8(%rbp), %rax
	addq	$104, %rax
	leaq	.LC26(%rip), %rdx
	movq	%rax, %rcx
	call	strcmp
	testl	%eax, %eax
	jne	.L160
.LBB24:
	.loc 1 1213 0
	movl	$0, %r8d
	movl	$0, %edx
	movl	$2, %ecx
	call	type_create
	movq	%rax, 216(%rbp)
	.loc 1 1214 0
	movq	216(%rbp), %rdx
	leaq	20496(%rbp), %rax
	movl	$0, %r9d
	movl	$0, %r8d
	movq	%rax, %rcx
	call	decl_create
	movq	%rax, 224(%rbp)
	.loc 1 1215 0
	movq	224(%rbp), %rax
	movl	44(%rbp), %edx
	movl	%edx, 64(%rsp)
	movq	$0, 56(%rsp)
	movq	$0, 48(%rsp)
	movq	$0, 40(%rsp)
	movq	$0, 32(%rsp)
	movl	$0, %r9d
	movl	$0, %r8d
	movq	%rax, %rdx
	movl	$0, %ecx
	call	stmt_create
	movq	%rax, 232(%rbp)
	.loc 1 1216 0
	movq	232(%rbp), %rdx
	movq	0(%rbp), %rax
	movl	$0, %r9d
	movq	%rdx, %r8
	movl	$0, %edx
	movq	%rax, %rcx
	call	push_commandList
.LBE24:
	jmp	.L149
.L160:
	.loc 1 1218 0
	movq	8(%rbp), %rax
	addq	$104, %rax
	leaq	.LC28(%rip), %rdx
	movq	%rax, %rcx
	call	strcmp
	testl	%eax, %eax
	jne	.L161
.LBB25:
	.loc 1 1219 0
	movl	$0, %r8d
	movl	$0, %edx
	movl	$1, %ecx
	call	type_create
	movq	%rax, 192(%rbp)
	.loc 1 1220 0
	movq	192(%rbp), %rdx
	leaq	20496(%rbp), %rax
	movl	$0, %r9d
	movl	$0, %r8d
	movq	%rax, %rcx
	call	decl_create
	movq	%rax, 200(%rbp)
	.loc 1 1221 0
	movq	200(%rbp), %rax
	movl	44(%rbp), %edx
	movl	%edx, 64(%rsp)
	movq	$0, 56(%rsp)
	movq	$0, 48(%rsp)
	movq	$0, 40(%rsp)
	movq	$0, 32(%rsp)
	movl	$0, %r9d
	movl	$0, %r8d
	movq	%rax, %rdx
	movl	$0, %ecx
	call	stmt_create
	movq	%rax, 208(%rbp)
	.loc 1 1222 0
	movq	208(%rbp), %rdx
	movq	0(%rbp), %rax
	movl	$0, %r9d
	movq	%rdx, %r8
	movl	$0, %edx
	movq	%rax, %rcx
	call	push_commandList
.LBE25:
	jmp	.L149
.L161:
	.loc 1 1224 0
	movq	8(%rbp), %rax
	addq	$104, %rax
	leaq	.LC30(%rip), %rdx
	movq	%rax, %rcx
	call	strcmp
	testl	%eax, %eax
	jne	.L162
.LBB26:
	.loc 1 1225 0
	movl	$0, %r8d
	movl	$0, %edx
	movl	$0, %ecx
	call	type_create
	movq	%rax, 168(%rbp)
	.loc 1 1226 0
	movq	168(%rbp), %rdx
	leaq	20496(%rbp), %rax
	movl	$0, %r9d
	movl	$0, %r8d
	movq	%rax, %rcx
	call	decl_create
	movq	%rax, 176(%rbp)
	.loc 1 1227 0
	movq	176(%rbp), %rax
	movl	44(%rbp), %edx
	movl	%edx, 64(%rsp)
	movq	$0, 56(%rsp)
	movq	$0, 48(%rsp)
	movq	$0, 40(%rsp)
	movq	$0, 32(%rsp)
	movl	$0, %r9d
	movl	$0, %r8d
	movq	%rax, %rdx
	movl	$0, %ecx
	call	stmt_create
	movq	%rax, 184(%rbp)
	.loc 1 1228 0
	movq	184(%rbp), %rdx
	movq	0(%rbp), %rax
	movl	$0, %r9d
	movq	%rdx, %r8
	movl	$0, %edx
	movq	%rax, %rcx
	call	push_commandList
.LBE26:
	jmp	.L149
.L162:
	.loc 1 1230 0
	movq	8(%rbp), %rax
	addq	$104, %rax
	leaq	.LC125(%rip), %rdx
	movq	%rax, %rcx
	call	strcmp
	testl	%eax, %eax
	je	.L163
	.loc 1 1230 0 is_stmt 0 discriminator 1
	movq	8(%rbp), %rax
	addq	$104, %rax
	leaq	.LC124(%rip), %rdx
	movq	%rax, %rcx
	call	strcmp
	testl	%eax, %eax
	jne	.L149
.L163:
.LBB27:
	.loc 1 1231 0 is_stmt 1
	leaq	28(%rbp), %rax
	movq	%rax, %rcx
	call	pop
	.loc 1 1232 0
	movl	28(%rbp), %eax
	cltq
	movb	$0, 464(%rbp,%rax)
	.loc 1 1233 0
	movq	8(%rbp), %rax
	addq	$104, %rax
	movq	%rax, %rcx
	call	expr_create_string
	movq	%rax, 144(%rbp)
	.loc 1 1234 0
	movq	144(%rbp), %rdx
	leaq	20496(%rbp), %rax
	movl	$0, %r9d
	movq	%rdx, %r8
	movl	$0, %edx
	movq	%rax, %rcx
	call	decl_create
	movq	%rax, 152(%rbp)
	.loc 1 1235 0
	movq	152(%rbp), %rax
	movl	44(%rbp), %edx
	movl	%edx, 64(%rsp)
	movq	$0, 56(%rsp)
	movq	$0, 48(%rsp)
	movq	$0, 40(%rsp)
	movq	$0, 32(%rsp)
	movl	$0, %r9d
	movl	$0, %r8d
	movq	%rax, %rdx
	movl	$0, %ecx
	call	stmt_create
	movq	%rax, 160(%rbp)
	.loc 1 1236 0
	movq	160(%rbp), %rdx
	movq	0(%rbp), %rax
	movl	$0, %r9d
	movq	%rdx, %r8
	movl	$0, %edx
	movq	%rax, %rcx
	call	push_commandList
	jmp	.L149
.L155:
.LBE27:
.LBB28:
	.loc 1 1241 0
	movl	28(%rbp), %eax
	leaq	464(%rbp), %rcx
	movslq	%eax, %rdx
	movq	%rdx, %rax
	salq	$2, %rax
	addq	%rdx, %rax
	leaq	0(,%rax,4), %rdx
	addq	%rdx, %rax
	salq	$2, %rax
	leaq	(%rcx,%rax), %rdx
	leaq	20608(%rbp), %rax
	movq	%rax, %rcx
	call	strcpy
	.loc 1 1242 0
	movl	28(%rbp), %eax
	cltq
	movb	$0, 464(%rbp,%rax)
	.loc 1 1243 0
	leaq	28(%rbp), %rax
	movq	%rax, %rcx
	call	pop
	.loc 1 1244 0
	movl	28(%rbp), %eax
	cltq
	movb	$0, 464(%rbp,%rax)
	.loc 1 1245 0
	leaq	20496(%rbp), %rax
	movq	%rax, %rcx
	call	expr_create_string
	movq	%rax, 120(%rbp)
	.loc 1 1246 0
	movq	120(%rbp), %rdx
	leaq	20608(%rbp), %rax
	movl	$0, %r9d
	movq	%rdx, %r8
	movl	$0, %edx
	movq	%rax, %rcx
	call	decl_create
	movq	%rax, 128(%rbp)
	.loc 1 1247 0
	movq	128(%rbp), %rax
	movl	44(%rbp), %edx
	movl	%edx, 64(%rsp)
	movq	$0, 56(%rsp)
	movq	$0, 48(%rsp)
	movq	$0, 40(%rsp)
	movq	$0, 32(%rsp)
	movl	$0, %r9d
	movl	$0, %r8d
	movq	%rax, %rdx
	movl	$0, %ecx
	call	stmt_create
	movq	%rax, 136(%rbp)
	.loc 1 1248 0
	movq	136(%rbp), %rdx
	movq	0(%rbp), %rax
	movl	$0, %r9d
	movq	%rdx, %r8
	movl	$0, %edx
	movq	%rax, %rcx
	call	push_commandList
.L149:
.LBE28:
	.loc 1 1252 0
	movl	444(%rbp), %eax
	cmpl	$1, %eax
	jne	.L148
	.loc 1 1254 0
	leaq	.LC129(%rip), %rcx
	call	puts
	.loc 1 1255 0
	movl	$0, 444(%rbp)
.L148:
	.loc 1 1259 0
	leaq	.LC3(%rip), %rcx
	call	puts
	.loc 1 1260 0
	movq	8(%rbp), %rax
	movq	208(%rax), %rax
	movq	%rax, 8(%rbp)
.L4:
	.loc 1 36 0
	cmpq	$0, 8(%rbp)
	jne	.L164
	.loc 1 1263 0
	nop
	.loc 1 1264 0
	movq	.refptr.__stack_chk_guard(%rip), %rax
	movq	20712(%rbp), %rbx
	xorq	(%rax), %rbx
	je	.L166
	call	__stack_chk_fail
	nop
.L166:
	addq	$20856, %rsp
	popq	%rbx
	.cfi_restore 3
	popq	%rbp
	.cfi_restore 6
	.cfi_def_cfa 7, 20872
	ret
	.cfi_endproc
.LFE10:
	.seh_endproc
.Letext0:
	.file 2 "/usr/lib/gcc/x86_64-pc-cygwin/7.4.0/include/stddef.h"
	.file 3 "/usr/include/sys/lock.h"
	.file 4 "/usr/include/sys/_types.h"
	.file 5 "/usr/include/sys/reent.h"
	.file 6 "/usr/include/ctype.h"
	.file 7 "./src/../inc/../inc/parse_state.h"
	.file 8 "./src/../inc/../inc/ast.h"
	.file 9 "./src/../inc/../inc/command.h"
	.file 10 "./src/../inc/../inc/../inc/symbol_table.h"
	.file 11 "./src/../inc/parserFunctions.h"
	.section	.rdata$.refptr.__stack_chk_guard, "dr"
	.globl	.refptr.__stack_chk_guard
	.linkonce	discard
.refptr.__stack_chk_guard:
	.quad	__stack_chk_guard
