	.file	"parserFunctions.c"
	.text
.Ltext0:
	.cfi_sections	.debug_frame
	.section .rdata,"dr"
	.align 8
.LC0:
	.ascii "already an identifier in stack \0"
.LC1:
	.ascii "the first expr : %s\12\0"
	.align 8
.LC2:
	.ascii "now in the stack already id: %s\12\0"
.LC3:
	.ascii "current->value: %s\12\0"
.LC4:
	.ascii "+\0"
.LC5:
	.ascii "-\0"
.LC6:
	.ascii "*\0"
.LC7:
	.ascii "/\0"
.LC8:
	.ascii "<\0"
.LC9:
	.ascii "<=\0"
.LC10:
	.ascii ">\0"
.LC11:
	.ascii ">=\0"
.LC12:
	.ascii "@==\0"
.LC13:
	.ascii "going to copy the value : %s\12\0"
.LC14:
	.ascii "current is NULL\0"
	.align 8
.LC15:
	.ascii "additional saved operator : %s\12\0"
.LC16:
	.ascii "current NOT NULL\0"
.LC17:
	.ascii "now the current 1 : %s\12\0"
.LC18:
	.ascii "operator\0"
.LC19:
	.ascii "operator again in while\0"
.LC20:
	.ascii "now the current 1.2 : %s\12\0"
.LC21:
	.ascii "end of command\0"
.LC22:
	.ascii "now the value : %s\12\0"
	.align 8
.LC23:
	.ascii "now the tempNode->tempOp : %s\12\0"
	.align 8
.LC24:
	.ascii "going to add, add expression to the list\0"
	.align 8
.LC25:
	.ascii "going to add, sub expression to the list\0"
	.align 8
.LC26:
	.ascii "going to add, mul expression to the list\0"
	.align 8
.LC27:
	.ascii "going to add, div expression to the list\0"
	.align 8
.LC28:
	.ascii "going to add, EXPR_SMALLER_CMP expression to the list\0"
	.align 8
.LC29:
	.ascii "going to add, EXPR_SMALLEROREQ_CMP expression to the list\0"
	.align 8
.LC30:
	.ascii "going to add, EXPR_BIGGER_CMP expression to the list\0"
	.align 8
.LC31:
	.ascii "going to add, EXPR_BIGGEROREQ_CMP expression to the list\0"
	.align 8
.LC32:
	.ascii "going to add, EXPR_EQUAL_CMP expression to the list\0"
	.align 8
.LC33:
	.ascii "current is NULL operator again add\0"
.LC34:
	.ascii "now the current 1.3 : %s\12\0"
.LC35:
	.ascii "identifier\0"
.LC36:
	.ascii "second parameter %s\12\0"
.LC37:
	.ascii "the tempNode->value : %s\12\0"
.LC38:
	.ascii "now in the stack : %s\12\0"
.LC39:
	.ascii "operator : %s\12\0"
.LC40:
	.ascii "the operator used add\0"
.LC41:
	.ascii "the operator used sub\0"
.LC42:
	.ascii "the operator used mul\0"
.LC43:
	.ascii "the operator used div\0"
.LC44:
	.ascii "the operator used smallerExpr\0"
.LC45:
	.ascii "the operator used biggerExpr\0"
	.align 8
.LC46:
	.ascii "the operator used EXPR_BIGGEROREQ_CMP\0"
	.align 8
.LC47:
	.ascii "the operator used EXPR_EQUAL_CMP\0"
.LC48:
	.ascii "the operator used add 2\0"
.LC49:
	.ascii "the operator used sub 2\0"
.LC50:
	.ascii "the operator used mul 2\0"
.LC51:
	.ascii "the operator used div 2\0"
	.align 8
.LC52:
	.ascii "the operator used smallerExpr 2\0"
	.align 8
.LC53:
	.ascii "the operator used biggerExpr 2\0"
	.align 8
.LC54:
	.ascii "the operator used EXPR_BIGGEROREQ_CMP 2\0"
	.align 8
.LC55:
	.ascii "the operator used EXPR_EQUAL_CMP 2\0"
	.align 8
.LC56:
	.ascii "Invalid operator, for return expression. Needs checking\0"
.LC57:
	.ascii "number\0"
.LC58:
	.ascii "now the current 3 : %s\12\0"
	.align 8
.LC59:
	.ascii "second parameter after eoc %s\12\0"
	.align 8
.LC60:
	.ascii "now in the tempNode->value : %s\12\0"
.LC61:
	.ascii "the tempTop : %d\12\0"
	.align 8
.LC62:
	.ascii "going for add in the end - finalExpr\0"
	.align 8
.LC63:
	.ascii "going for sub in the end - finalExpr\0"
	.align 8
.LC64:
	.ascii "going for mul in the end - finalExpr\0"
	.align 8
.LC65:
	.ascii "going for div in the end - finalExpr\0"
	.align 8
.LC66:
	.ascii "going for EXPR_SMALLER_CMP in the end - finalExpr\0"
	.align 8
.LC67:
	.ascii "going for EXPR_SMALLEROREQ_CMP in the end - finalExpr\0"
	.align 8
.LC68:
	.ascii "going for EXPR_BIGGER_CMP in the end - finalExpr\0"
	.align 8
.LC69:
	.ascii "going for EXPR_BIGGEROREQ_CMP in the end - finalExpr\0"
	.align 8
.LC70:
	.ascii "going for EXPR_EQUAL_CMP in the end - finalExpr\0"
	.align 8
.LC71:
	.ascii "before hereeee checkForReturnOperator\0"
	.align 8
.LC72:
	.ascii "going for null break 1 checkForReturnOperator --- in return stmt\0"
	.align 8
.LC73:
	.ascii "in return eoc loop with value : %s\12\0"
	.align 8
.LC74:
	.ascii "going for eoc break --- in return stmt\0"
.LC75:
	.ascii "the current now in else : %s\12\0"
	.align 8
.LC76:
	.ascii "going for null break 2 checkForReturnOperator --- in return stmt\0"
	.text
	.globl	checkForReturnOperator
	.def	checkForReturnOperator;	.scl	2;	.type	32;	.endef
	.seh_proc	checkForReturnOperator
checkForReturnOperator:
.LFB9:
	.file 1 "./src/parserFunctions.c"
	.loc 1 7 0
	.cfi_startproc
	pushq	%rbp
	.seh_pushreg	%rbp
	.cfi_def_cfa_offset 16
	.cfi_offset 6, -16
	subq	$256, %rsp
	.seh_stackalloc	256
	.cfi_def_cfa_offset 272
	leaq	128(%rsp), %rbp
	.seh_setframe	%rbp, 128
	.cfi_def_cfa 6, 144
	.seh_endprologue
	movq	%rcx, 144(%rbp)
	movq	%rdx, 152(%rbp)
	movl	%r8d, 160(%rbp)
	movq	%r9, 168(%rbp)
	.loc 1 8 0
	movl	$0, -36(%rbp)
	.loc 1 9 0
	movl	$16, %ecx
	call	malloc
	movq	%rax, 8(%rbp)
	.loc 1 12 0
	movl	160(%rbp), %eax
	cmpl	$1, %eax
	jle	.L2
.LBB2:
	.loc 1 13 0
	leaq	.LC0(%rip), %rcx
	call	puts
	.loc 1 15 0
	leaq	160(%rbp), %rax
	movq	%rax, %rcx
	call	pop
	.loc 1 16 0
	leaq	160(%rbp), %rax
	movq	%rax, %rcx
	call	pop
	.loc 1 17 0
	movq	176(%rbp), %rax
	addq	$106, %rax
	movq	%rax, %rdx
	leaq	.LC1(%rip), %rcx
	call	printf
	.loc 1 18 0
	movq	152(%rbp), %rax
	movq	%rax, %rdx
	leaq	.LC2(%rip), %rcx
	call	printf
	.loc 1 19 0
	movq	144(%rbp), %rax
	addq	$104, %rax
	movq	%rax, %rdx
	leaq	.LC3(%rip), %rcx
	call	printf
	.loc 1 21 0
	movq	176(%rbp), %rax
	addq	$106, %rax
	movq	%rax, %rcx
	call	expr_create_string
	movq	%rax, 16(%rbp)
	.loc 1 22 0
	movq	144(%rbp), %rax
	addq	$104, %rax
	movq	%rax, %rcx
	call	expr_create_string
	movq	%rax, 24(%rbp)
	.loc 1 24 0
	movq	152(%rbp), %rax
	leaq	.LC4(%rip), %rdx
	movq	%rax, %rcx
	call	strcmp
	testl	%eax, %eax
	jne	.L3
	.loc 1 25 0
	movq	24(%rbp), %rdx
	movq	16(%rbp), %rax
	movl	$-1, 48(%rsp)
	movq	$0, 40(%rsp)
	movl	$0, 32(%rsp)
	movl	$0, %r9d
	movq	%rdx, %r8
	movq	%rax, %rdx
	movl	$0, %ecx
	call	expr_create
	movq	%rax, -24(%rbp)
	jmp	.L4
.L3:
	.loc 1 27 0
	movq	152(%rbp), %rax
	leaq	.LC5(%rip), %rdx
	movq	%rax, %rcx
	call	strcmp
	testl	%eax, %eax
	jne	.L5
	.loc 1 28 0
	movq	24(%rbp), %rdx
	movq	16(%rbp), %rax
	movl	$-1, 48(%rsp)
	movq	$0, 40(%rsp)
	movl	$0, 32(%rsp)
	movl	$0, %r9d
	movq	%rdx, %r8
	movq	%rax, %rdx
	movl	$1, %ecx
	call	expr_create
	movq	%rax, -24(%rbp)
	jmp	.L4
.L5:
	.loc 1 30 0
	movq	152(%rbp), %rax
	leaq	.LC6(%rip), %rdx
	movq	%rax, %rcx
	call	strcmp
	testl	%eax, %eax
	jne	.L6
	.loc 1 31 0
	movq	24(%rbp), %rdx
	movq	16(%rbp), %rax
	movl	$-1, 48(%rsp)
	movq	$0, 40(%rsp)
	movl	$0, 32(%rsp)
	movl	$0, %r9d
	movq	%rdx, %r8
	movq	%rax, %rdx
	movl	$2, %ecx
	call	expr_create
	movq	%rax, -24(%rbp)
	jmp	.L4
.L6:
	.loc 1 33 0
	movq	152(%rbp), %rax
	leaq	.LC7(%rip), %rdx
	movq	%rax, %rcx
	call	strcmp
	testl	%eax, %eax
	jne	.L7
	.loc 1 34 0
	movq	24(%rbp), %rdx
	movq	16(%rbp), %rax
	movl	$-1, 48(%rsp)
	movq	$0, 40(%rsp)
	movl	$0, 32(%rsp)
	movl	$0, %r9d
	movq	%rdx, %r8
	movq	%rax, %rdx
	movl	$3, %ecx
	call	expr_create
	movq	%rax, -24(%rbp)
	jmp	.L4
.L7:
	.loc 1 36 0
	movq	152(%rbp), %rax
	leaq	.LC8(%rip), %rdx
	movq	%rax, %rcx
	call	strcmp
	testl	%eax, %eax
	jne	.L8
	.loc 1 37 0
	movq	24(%rbp), %rdx
	movq	16(%rbp), %rax
	movl	$-1, 48(%rsp)
	movq	$0, 40(%rsp)
	movl	$0, 32(%rsp)
	movl	$0, %r9d
	movq	%rdx, %r8
	movq	%rax, %rdx
	movl	$13, %ecx
	call	expr_create
	movq	%rax, -24(%rbp)
	jmp	.L4
.L8:
	.loc 1 39 0
	movq	152(%rbp), %rax
	leaq	.LC9(%rip), %rdx
	movq	%rax, %rcx
	call	strcmp
	testl	%eax, %eax
	jne	.L9
	.loc 1 40 0
	movq	24(%rbp), %rdx
	movq	16(%rbp), %rax
	movl	$-1, 48(%rsp)
	movq	$0, 40(%rsp)
	movl	$0, 32(%rsp)
	movl	$0, %r9d
	movq	%rdx, %r8
	movq	%rax, %rdx
	movl	$14, %ecx
	call	expr_create
	movq	%rax, -24(%rbp)
	jmp	.L4
.L9:
	.loc 1 42 0
	movq	152(%rbp), %rax
	leaq	.LC10(%rip), %rdx
	movq	%rax, %rcx
	call	strcmp
	testl	%eax, %eax
	jne	.L10
	.loc 1 43 0
	movq	24(%rbp), %rdx
	movq	16(%rbp), %rax
	movl	$-1, 48(%rsp)
	movq	$0, 40(%rsp)
	movl	$0, 32(%rsp)
	movl	$0, %r9d
	movq	%rdx, %r8
	movq	%rax, %rdx
	movl	$11, %ecx
	call	expr_create
	movq	%rax, -24(%rbp)
	jmp	.L4
.L10:
	.loc 1 45 0
	movq	152(%rbp), %rax
	leaq	.LC11(%rip), %rdx
	movq	%rax, %rcx
	call	strcmp
	testl	%eax, %eax
	jne	.L11
	.loc 1 46 0
	movq	24(%rbp), %rdx
	movq	16(%rbp), %rax
	movl	$-1, 48(%rsp)
	movq	$0, 40(%rsp)
	movl	$0, 32(%rsp)
	movl	$0, %r9d
	movq	%rdx, %r8
	movq	%rax, %rdx
	movl	$12, %ecx
	call	expr_create
	movq	%rax, -24(%rbp)
	jmp	.L4
.L11:
	.loc 1 48 0
	movq	152(%rbp), %rax
	leaq	.LC12(%rip), %rdx
	movq	%rax, %rcx
	call	strcmp
	testl	%eax, %eax
	jne	.L4
	.loc 1 49 0
	movq	24(%rbp), %rdx
	movq	16(%rbp), %rax
	movl	$-1, 48(%rsp)
	movq	$0, 40(%rsp)
	movl	$0, 32(%rsp)
	movl	$0, %r9d
	movq	%rdx, %r8
	movq	%rax, %rdx
	movl	$15, %ecx
	call	expr_create
	movq	%rax, -24(%rbp)
.L4:
	.loc 1 52 0
	movq	-24(%rbp), %rdx
	movq	8(%rbp), %rax
	movq	%rax, %rcx
	call	push_expressionList
	.loc 1 55 0
	movl	160(%rbp), %eax
	addl	$1, %eax
	movl	%eax, 160(%rbp)
	.loc 1 56 0
	movq	144(%rbp), %rax
	leaq	104(%rax), %rcx
	leaq	160(%rbp), %rdx
	movq	152(%rbp), %rax
	movq	%rcx, %r8
	movq	%rax, %rcx
	call	push
	.loc 1 57 0
	movq	144(%rbp), %rax
	addq	$104, %rax
	movq	%rax, %rdx
	leaq	.LC13(%rip), %rcx
	call	printf
	.loc 1 58 0
	movq	144(%rbp), %rax
	leaq	104(%rax), %rdx
	movq	176(%rbp), %rax
	addq	$106, %rax
	movq	%rax, %rcx
	call	strcpy
	.loc 1 60 0
	movq	144(%rbp), %rax
	movq	208(%rax), %rax
	movq	%rax, 144(%rbp)
	.loc 1 61 0
	cmpq	$0, 144(%rbp)
	jne	.L12
.LBB3:
	.loc 1 62 0
	leaq	.LC14(%rip), %rcx
	call	puts
	.loc 1 63 0
	movl	$-1, 72(%rsp)
	movq	$0, 64(%rsp)
	movq	8(%rbp), %rax
	movq	%rax, 56(%rsp)
	movq	$0, 48(%rsp)
	movq	$0, 40(%rsp)
	movq	$0, 32(%rsp)
	movl	$0, %r9d
	movl	$0, %r8d
	movl	$0, %edx
	movl	$10, %ecx
	call	stmt_create
	movq	%rax, 32(%rbp)
	.loc 1 64 0
	movq	32(%rbp), %rdx
	movq	168(%rbp), %rax
	movl	$0, %r9d
	movq	%rdx, %r8
	movl	$0, %edx
	movq	%rax, %rcx
	call	push_commandList
	.loc 1 65 0
	movq	144(%rbp), %rax
	jmp	.L13
.L12:
.LBE3:
	.loc 1 68 0
	movq	176(%rbp), %rax
	addq	$103, %rax
	testq	%rax, %rax
	je	.L14
	.loc 1 68 0 discriminator 1
	movq	176(%rbp), %rax
	movzbl	103(%rax), %eax
	testb	%al, %al
	je	.L14
	.loc 1 69 0
	movq	176(%rbp), %rax
	addq	$103, %rax
	movq	%rax, %rdx
	leaq	.LC15(%rip), %rcx
	call	printf
	.loc 1 70 0
	movl	160(%rbp), %eax
	addl	$1, %eax
	movl	%eax, 160(%rbp)
	.loc 1 71 0
	movq	176(%rbp), %rax
	leaq	103(%rax), %rcx
	leaq	160(%rbp), %rdx
	movq	152(%rbp), %rax
	movq	%rcx, %r8
	movq	%rax, %rcx
	call	push
	jmp	.L2
.L14:
	.loc 1 74 0
	movl	160(%rbp), %eax
	addl	$1, %eax
	movl	%eax, 160(%rbp)
	.loc 1 75 0
	movq	144(%rbp), %rax
	leaq	104(%rax), %rcx
	leaq	160(%rbp), %rdx
	movq	152(%rbp), %rax
	movq	%rcx, %r8
	movq	%rax, %rcx
	call	push
	.loc 1 76 0
	movq	144(%rbp), %rax
	leaq	104(%rax), %rdx
	movq	176(%rbp), %rax
	movq	%rax, %rcx
	call	strcpy
	.loc 1 77 0
	leaq	.LC16(%rip), %rcx
	call	puts
	.loc 1 78 0
	movq	144(%rbp), %rax
	movq	208(%rax), %rax
	movq	%rax, 144(%rbp)
.L2:
.LBE2:
	.loc 1 83 0
	movq	144(%rbp), %rax
	movq	208(%rax), %rax
	movq	%rax, 144(%rbp)
	.loc 1 84 0
	movq	144(%rbp), %rax
	addq	$104, %rax
	movq	%rax, %rdx
	leaq	.LC17(%rip), %rcx
	call	printf
	.loc 1 85 0
	jmp	.L15
.L47:
	.loc 1 86 0
	movq	144(%rbp), %rax
	addq	$4, %rax
	leaq	.LC18(%rip), %rdx
	movq	%rax, %rcx
	call	strcmp
	testl	%eax, %eax
	jne	.L16
	.loc 1 87 0
	leaq	.LC19(%rip), %rcx
	call	puts
	.loc 1 88 0
	movl	160(%rbp), %eax
	movslq	%eax, %rdx
	movq	152(%rbp), %rax
	addq	%rdx, %rax
	movb	$0, (%rax)
	.loc 1 89 0
	leaq	160(%rbp), %rax
	movq	%rax, %rcx
	call	pop
	.loc 1 90 0
	movl	160(%rbp), %eax
	addl	$1, %eax
	movl	%eax, 160(%rbp)
	.loc 1 91 0
	movq	144(%rbp), %rax
	leaq	104(%rax), %rcx
	leaq	160(%rbp), %rdx
	movq	152(%rbp), %rax
	movq	%rcx, %r8
	movq	%rax, %rcx
	call	push
	.loc 1 92 0
	movq	144(%rbp), %rax
	leaq	104(%rax), %rdx
	movq	176(%rbp), %rax
	addq	$103, %rax
	movq	%rax, %rcx
	call	strcpy
	.loc 1 93 0
	cmpl	$1, -36(%rbp)
	jne	.L17
	.loc 1 94 0
	movq	144(%rbp), %rax
	leaq	104(%rax), %rdx
	movq	176(%rbp), %rax
	addq	$100, %rax
	movq	%rax, %rcx
	call	strcpy
.L17:
	.loc 1 96 0
	movq	144(%rbp), %rax
	movq	208(%rax), %rax
	movq	%rax, 144(%rbp)
	.loc 1 97 0
	movq	144(%rbp), %rax
	addq	$104, %rax
	movq	%rax, %rdx
	leaq	.LC20(%rip), %rcx
	call	printf
	.loc 1 99 0
	movq	144(%rbp), %rax
	addq	$4, %rax
	leaq	.LC21(%rip), %rdx
	movq	%rax, %rcx
	call	strcmp
	testl	%eax, %eax
	je	.L15
.LBB4:
	.loc 1 101 0
	movq	176(%rbp), %rax
	addq	$106, %rax
	movq	%rax, %rdx
	leaq	.LC22(%rip), %rcx
	call	printf
	.loc 1 102 0
	movq	176(%rbp), %rax
	addq	$100, %rax
	movq	%rax, %rdx
	leaq	.LC23(%rip), %rcx
	call	printf
	.loc 1 104 0
	movq	176(%rbp), %rax
	addq	$106, %rax
	movq	%rax, %rcx
	call	expr_create_string
	movq	%rax, 104(%rbp)
	.loc 1 105 0
	movq	144(%rbp), %rax
	addq	$104, %rax
	movq	%rax, %rcx
	call	expr_create_string
	movq	%rax, 112(%rbp)
	.loc 1 108 0
	movq	176(%rbp), %rax
	addq	$100, %rax
	leaq	.LC4(%rip), %rdx
	movq	%rax, %rcx
	call	strcmp
	testl	%eax, %eax
	jne	.L18
	.loc 1 109 0
	leaq	.LC24(%rip), %rcx
	call	puts
	.loc 1 110 0
	movq	112(%rbp), %rdx
	movq	104(%rbp), %rax
	movl	$-1, 48(%rsp)
	movq	$0, 40(%rsp)
	movl	$0, 32(%rsp)
	movl	$0, %r9d
	movq	%rdx, %r8
	movq	%rax, %rdx
	movl	$0, %ecx
	call	expr_create
	movq	%rax, -16(%rbp)
	jmp	.L19
.L18:
	.loc 1 112 0
	movq	176(%rbp), %rax
	addq	$100, %rax
	leaq	.LC5(%rip), %rdx
	movq	%rax, %rcx
	call	strcmp
	testl	%eax, %eax
	jne	.L20
	.loc 1 113 0
	leaq	.LC25(%rip), %rcx
	call	puts
	.loc 1 114 0
	movq	112(%rbp), %rdx
	movq	104(%rbp), %rax
	movl	$-1, 48(%rsp)
	movq	$0, 40(%rsp)
	movl	$0, 32(%rsp)
	movl	$0, %r9d
	movq	%rdx, %r8
	movq	%rax, %rdx
	movl	$1, %ecx
	call	expr_create
	movq	%rax, -16(%rbp)
	jmp	.L19
.L20:
	.loc 1 116 0
	movq	176(%rbp), %rax
	addq	$100, %rax
	leaq	.LC6(%rip), %rdx
	movq	%rax, %rcx
	call	strcmp
	testl	%eax, %eax
	jne	.L21
	.loc 1 117 0
	leaq	.LC26(%rip), %rcx
	call	puts
	.loc 1 118 0
	movq	112(%rbp), %rdx
	movq	104(%rbp), %rax
	movl	$-1, 48(%rsp)
	movq	$0, 40(%rsp)
	movl	$0, 32(%rsp)
	movl	$0, %r9d
	movq	%rdx, %r8
	movq	%rax, %rdx
	movl	$2, %ecx
	call	expr_create
	movq	%rax, -16(%rbp)
	jmp	.L19
.L21:
	.loc 1 120 0
	movq	176(%rbp), %rax
	addq	$100, %rax
	leaq	.LC7(%rip), %rdx
	movq	%rax, %rcx
	call	strcmp
	testl	%eax, %eax
	jne	.L22
	.loc 1 121 0
	leaq	.LC27(%rip), %rcx
	call	puts
	.loc 1 122 0
	movq	112(%rbp), %rdx
	movq	104(%rbp), %rax
	movl	$-1, 48(%rsp)
	movq	$0, 40(%rsp)
	movl	$0, 32(%rsp)
	movl	$0, %r9d
	movq	%rdx, %r8
	movq	%rax, %rdx
	movl	$3, %ecx
	call	expr_create
	movq	%rax, -16(%rbp)
	jmp	.L19
.L22:
	.loc 1 124 0
	movq	176(%rbp), %rax
	addq	$100, %rax
	leaq	.LC8(%rip), %rdx
	movq	%rax, %rcx
	call	strcmp
	testl	%eax, %eax
	jne	.L23
	.loc 1 125 0
	leaq	.LC28(%rip), %rcx
	call	puts
	.loc 1 126 0
	movq	112(%rbp), %rdx
	movq	104(%rbp), %rax
	movl	$-1, 48(%rsp)
	movq	$0, 40(%rsp)
	movl	$0, 32(%rsp)
	movl	$0, %r9d
	movq	%rdx, %r8
	movq	%rax, %rdx
	movl	$13, %ecx
	call	expr_create
	movq	%rax, -16(%rbp)
	jmp	.L19
.L23:
	.loc 1 128 0
	movq	176(%rbp), %rax
	addq	$100, %rax
	leaq	.LC9(%rip), %rdx
	movq	%rax, %rcx
	call	strcmp
	testl	%eax, %eax
	jne	.L24
	.loc 1 129 0
	leaq	.LC29(%rip), %rcx
	call	puts
	.loc 1 130 0
	movq	112(%rbp), %rdx
	movq	104(%rbp), %rax
	movl	$-1, 48(%rsp)
	movq	$0, 40(%rsp)
	movl	$0, 32(%rsp)
	movl	$0, %r9d
	movq	%rdx, %r8
	movq	%rax, %rdx
	movl	$14, %ecx
	call	expr_create
	movq	%rax, -16(%rbp)
	jmp	.L19
.L24:
	.loc 1 132 0
	movq	176(%rbp), %rax
	addq	$100, %rax
	leaq	.LC10(%rip), %rdx
	movq	%rax, %rcx
	call	strcmp
	testl	%eax, %eax
	jne	.L25
	.loc 1 133 0
	leaq	.LC30(%rip), %rcx
	call	puts
	.loc 1 134 0
	movq	112(%rbp), %rdx
	movq	104(%rbp), %rax
	movl	$-1, 48(%rsp)
	movq	$0, 40(%rsp)
	movl	$0, 32(%rsp)
	movl	$0, %r9d
	movq	%rdx, %r8
	movq	%rax, %rdx
	movl	$11, %ecx
	call	expr_create
	movq	%rax, -16(%rbp)
	jmp	.L19
.L25:
	.loc 1 136 0
	movq	176(%rbp), %rax
	addq	$100, %rax
	leaq	.LC11(%rip), %rdx
	movq	%rax, %rcx
	call	strcmp
	testl	%eax, %eax
	jne	.L26
	.loc 1 137 0
	leaq	.LC31(%rip), %rcx
	call	puts
	.loc 1 138 0
	movq	112(%rbp), %rdx
	movq	104(%rbp), %rax
	movl	$-1, 48(%rsp)
	movq	$0, 40(%rsp)
	movl	$0, 32(%rsp)
	movl	$0, %r9d
	movq	%rdx, %r8
	movq	%rax, %rdx
	movl	$12, %ecx
	call	expr_create
	movq	%rax, -16(%rbp)
	jmp	.L19
.L26:
	.loc 1 140 0
	movq	176(%rbp), %rax
	addq	$100, %rax
	leaq	.LC12(%rip), %rdx
	movq	%rax, %rcx
	call	strcmp
	testl	%eax, %eax
	jne	.L19
	.loc 1 141 0
	leaq	.LC32(%rip), %rcx
	call	puts
	.loc 1 142 0
	movq	112(%rbp), %rdx
	movq	104(%rbp), %rax
	movl	$-1, 48(%rsp)
	movq	$0, 40(%rsp)
	movl	$0, 32(%rsp)
	movl	$0, %r9d
	movq	%rdx, %r8
	movq	%rax, %rdx
	movl	$15, %ecx
	call	expr_create
	movq	%rax, -16(%rbp)
.L19:
	.loc 1 146 0
	movq	-16(%rbp), %rdx
	movq	8(%rbp), %rax
	movq	%rax, %rcx
	call	push_expressionList
	.loc 1 148 0
	movq	144(%rbp), %rax
	addq	$104, %rax
	movq	%rax, %rdx
	leaq	.LC13(%rip), %rcx
	call	printf
	.loc 1 149 0
	movq	144(%rbp), %rax
	leaq	104(%rax), %rdx
	movq	176(%rbp), %rax
	addq	$106, %rax
	movq	%rax, %rcx
	call	strcpy
	.loc 1 150 0
	movq	176(%rbp), %rax
	leaq	103(%rax), %rdx
	movq	176(%rbp), %rax
	addq	$100, %rax
	movq	%rax, %rcx
	call	strcpy
	.loc 1 151 0
	movq	144(%rbp), %rax
	movq	208(%rax), %rax
	movq	%rax, 144(%rbp)
	.loc 1 152 0
	cmpq	$0, 144(%rbp)
	jne	.L27
.LBB5:
	.loc 1 153 0
	leaq	.LC33(%rip), %rcx
	call	puts
	.loc 1 154 0
	movl	$-1, 72(%rsp)
	movq	$0, 64(%rsp)
	movq	8(%rbp), %rax
	movq	%rax, 56(%rsp)
	movq	$0, 48(%rsp)
	movq	$0, 40(%rsp)
	movq	$0, 32(%rsp)
	movl	$0, %r9d
	movl	$0, %r8d
	movl	$0, %edx
	movl	$10, %ecx
	call	stmt_create
	movq	%rax, 120(%rbp)
	.loc 1 155 0
	movq	120(%rbp), %rdx
	movq	168(%rbp), %rax
	movl	$0, %r9d
	movq	%rdx, %r8
	movl	$0, %edx
	movq	%rax, %rcx
	call	push_commandList
	.loc 1 156 0
	movq	144(%rbp), %rax
	jmp	.L13
.L27:
.LBE5:
	.loc 1 159 0
	movq	144(%rbp), %rax
	addq	$104, %rax
	movq	%rax, %rdx
	leaq	.LC34(%rip), %rcx
	call	printf
	.loc 1 160 0
	jmp	.L15
.L16:
.LBE4:
	.loc 1 164 0
	movq	144(%rbp), %rax
	addq	$4, %rax
	leaq	.LC35(%rip), %rdx
	movq	%rax, %rcx
	call	strcmp
	testl	%eax, %eax
	jne	.L15
.LBB6:
	.loc 1 165 0
	movq	144(%rbp), %rax
	addq	$104, %rax
	movq	%rax, %rdx
	leaq	.LC36(%rip), %rcx
	call	printf
	.loc 1 166 0
	movq	176(%rbp), %rax
	addq	$106, %rax
	movq	%rax, %rdx
	leaq	.LC37(%rip), %rcx
	call	printf
	.loc 1 167 0
	movq	152(%rbp), %rax
	movq	%rax, %rdx
	leaq	.LC38(%rip), %rcx
	call	printf
	.loc 1 168 0
	movq	176(%rbp), %rax
	addq	$103, %rax
	movq	%rax, %rdx
	leaq	.LC39(%rip), %rcx
	call	printf
	.loc 1 170 0
	movq	176(%rbp), %rax
	addq	$106, %rax
	movq	%rax, %rcx
	call	expr_create_string
	movq	%rax, 72(%rbp)
	.loc 1 171 0
	movq	144(%rbp), %rax
	addq	$104, %rax
	movq	%rax, %rcx
	call	expr_create_string
	movq	%rax, 80(%rbp)
	.loc 1 174 0
	movq	152(%rbp), %rax
	leaq	.LC4(%rip), %rdx
	movq	%rax, %rcx
	call	strcmp
	testl	%eax, %eax
	jne	.L28
	.loc 1 175 0
	leaq	.LC40(%rip), %rcx
	call	puts
	.loc 1 176 0
	movq	80(%rbp), %rdx
	movq	72(%rbp), %rax
	movl	$-1, 48(%rsp)
	movq	$0, 40(%rsp)
	movl	$0, 32(%rsp)
	movl	$0, %r9d
	movq	%rdx, %r8
	movq	%rax, %rdx
	movl	$0, %ecx
	call	expr_create
	movq	%rax, -8(%rbp)
	jmp	.L29
.L28:
	.loc 1 178 0
	movq	152(%rbp), %rax
	leaq	.LC5(%rip), %rdx
	movq	%rax, %rcx
	call	strcmp
	testl	%eax, %eax
	jne	.L30
	.loc 1 179 0
	movq	80(%rbp), %rdx
	movq	72(%rbp), %rax
	movl	$-1, 48(%rsp)
	movq	$0, 40(%rsp)
	movl	$0, 32(%rsp)
	movl	$0, %r9d
	movq	%rdx, %r8
	movq	%rax, %rdx
	movl	$1, %ecx
	call	expr_create
	movq	%rax, -8(%rbp)
	.loc 1 180 0
	leaq	.LC41(%rip), %rcx
	call	puts
	jmp	.L29
.L30:
	.loc 1 182 0
	movq	152(%rbp), %rax
	leaq	.LC6(%rip), %rdx
	movq	%rax, %rcx
	call	strcmp
	testl	%eax, %eax
	jne	.L31
	.loc 1 183 0
	movq	80(%rbp), %rdx
	movq	72(%rbp), %rax
	movl	$-1, 48(%rsp)
	movq	$0, 40(%rsp)
	movl	$0, 32(%rsp)
	movl	$0, %r9d
	movq	%rdx, %r8
	movq	%rax, %rdx
	movl	$2, %ecx
	call	expr_create
	movq	%rax, -8(%rbp)
	.loc 1 184 0
	leaq	.LC42(%rip), %rcx
	call	puts
	jmp	.L29
.L31:
	.loc 1 186 0
	movq	152(%rbp), %rax
	leaq	.LC7(%rip), %rdx
	movq	%rax, %rcx
	call	strcmp
	testl	%eax, %eax
	jne	.L32
	.loc 1 187 0
	movq	80(%rbp), %rdx
	movq	72(%rbp), %rax
	movl	$-1, 48(%rsp)
	movq	$0, 40(%rsp)
	movl	$0, 32(%rsp)
	movl	$0, %r9d
	movq	%rdx, %r8
	movq	%rax, %rdx
	movl	$3, %ecx
	call	expr_create
	movq	%rax, -8(%rbp)
	.loc 1 188 0
	leaq	.LC43(%rip), %rcx
	call	puts
	jmp	.L29
.L32:
	.loc 1 190 0
	movq	152(%rbp), %rax
	leaq	.LC8(%rip), %rdx
	movq	%rax, %rcx
	call	strcmp
	testl	%eax, %eax
	jne	.L33
	.loc 1 191 0
	movq	80(%rbp), %rdx
	movq	72(%rbp), %rax
	movl	$-1, 48(%rsp)
	movq	$0, 40(%rsp)
	movl	$0, 32(%rsp)
	movl	$0, %r9d
	movq	%rdx, %r8
	movq	%rax, %rdx
	movl	$13, %ecx
	call	expr_create
	movq	%rax, -8(%rbp)
	.loc 1 192 0
	leaq	.LC44(%rip), %rcx
	call	puts
	jmp	.L29
.L33:
	.loc 1 194 0
	movq	152(%rbp), %rax
	leaq	.LC9(%rip), %rdx
	movq	%rax, %rcx
	call	strcmp
	testl	%eax, %eax
	jne	.L34
	.loc 1 195 0
	movq	80(%rbp), %rdx
	movq	72(%rbp), %rax
	movl	$-1, 48(%rsp)
	movq	$0, 40(%rsp)
	movl	$0, 32(%rsp)
	movl	$0, %r9d
	movq	%rdx, %r8
	movq	%rax, %rdx
	movl	$14, %ecx
	call	expr_create
	movq	%rax, -8(%rbp)
	.loc 1 196 0
	leaq	.LC44(%rip), %rcx
	call	puts
	jmp	.L29
.L34:
	.loc 1 198 0
	movq	152(%rbp), %rax
	leaq	.LC10(%rip), %rdx
	movq	%rax, %rcx
	call	strcmp
	testl	%eax, %eax
	jne	.L35
	.loc 1 199 0
	movq	80(%rbp), %rdx
	movq	72(%rbp), %rax
	movl	$-1, 48(%rsp)
	movq	$0, 40(%rsp)
	movl	$0, 32(%rsp)
	movl	$0, %r9d
	movq	%rdx, %r8
	movq	%rax, %rdx
	movl	$11, %ecx
	call	expr_create
	movq	%rax, -8(%rbp)
	.loc 1 200 0
	leaq	.LC45(%rip), %rcx
	call	puts
	jmp	.L29
.L35:
	.loc 1 202 0
	movq	152(%rbp), %rax
	leaq	.LC11(%rip), %rdx
	movq	%rax, %rcx
	call	strcmp
	testl	%eax, %eax
	jne	.L36
	.loc 1 203 0
	movq	80(%rbp), %rdx
	movq	72(%rbp), %rax
	movl	$-1, 48(%rsp)
	movq	$0, 40(%rsp)
	movl	$0, 32(%rsp)
	movl	$0, %r9d
	movq	%rdx, %r8
	movq	%rax, %rdx
	movl	$12, %ecx
	call	expr_create
	movq	%rax, -8(%rbp)
	.loc 1 204 0
	leaq	.LC46(%rip), %rcx
	call	puts
	jmp	.L29
.L36:
	.loc 1 206 0
	movq	152(%rbp), %rax
	leaq	.LC12(%rip), %rdx
	movq	%rax, %rcx
	call	strcmp
	testl	%eax, %eax
	jne	.L37
	.loc 1 207 0
	movq	80(%rbp), %rdx
	movq	72(%rbp), %rax
	movl	$-1, 48(%rsp)
	movq	$0, 40(%rsp)
	movl	$0, 32(%rsp)
	movl	$0, %r9d
	movq	%rdx, %r8
	movq	%rax, %rdx
	movl	$15, %ecx
	call	expr_create
	movq	%rax, -8(%rbp)
	.loc 1 208 0
	leaq	.LC47(%rip), %rcx
	call	puts
	jmp	.L29
.L37:
	.loc 1 211 0
	movq	176(%rbp), %rax
	addq	$103, %rax
	leaq	.LC4(%rip), %rdx
	movq	%rax, %rcx
	call	strcmp
	testl	%eax, %eax
	jne	.L38
	.loc 1 212 0
	leaq	.LC48(%rip), %rcx
	call	puts
	.loc 1 213 0
	movq	80(%rbp), %rdx
	movq	72(%rbp), %rax
	movl	$-1, 48(%rsp)
	movq	$0, 40(%rsp)
	movl	$0, 32(%rsp)
	movl	$0, %r9d
	movq	%rdx, %r8
	movq	%rax, %rdx
	movl	$0, %ecx
	call	expr_create
	movq	%rax, -8(%rbp)
	jmp	.L29
.L38:
	.loc 1 215 0
	movq	176(%rbp), %rax
	addq	$103, %rax
	leaq	.LC5(%rip), %rdx
	movq	%rax, %rcx
	call	strcmp
	testl	%eax, %eax
	jne	.L39
	.loc 1 216 0
	movq	80(%rbp), %rdx
	movq	72(%rbp), %rax
	movl	$-1, 48(%rsp)
	movq	$0, 40(%rsp)
	movl	$0, 32(%rsp)
	movl	$0, %r9d
	movq	%rdx, %r8
	movq	%rax, %rdx
	movl	$1, %ecx
	call	expr_create
	movq	%rax, -8(%rbp)
	.loc 1 217 0
	leaq	.LC49(%rip), %rcx
	call	puts
	jmp	.L29
.L39:
	.loc 1 219 0
	movq	176(%rbp), %rax
	addq	$103, %rax
	leaq	.LC6(%rip), %rdx
	movq	%rax, %rcx
	call	strcmp
	testl	%eax, %eax
	jne	.L40
	.loc 1 220 0
	movq	80(%rbp), %rdx
	movq	72(%rbp), %rax
	movl	$-1, 48(%rsp)
	movq	$0, 40(%rsp)
	movl	$0, 32(%rsp)
	movl	$0, %r9d
	movq	%rdx, %r8
	movq	%rax, %rdx
	movl	$2, %ecx
	call	expr_create
	movq	%rax, -8(%rbp)
	.loc 1 221 0
	leaq	.LC50(%rip), %rcx
	call	puts
	jmp	.L29
.L40:
	.loc 1 223 0
	movq	176(%rbp), %rax
	addq	$103, %rax
	leaq	.LC7(%rip), %rdx
	movq	%rax, %rcx
	call	strcmp
	testl	%eax, %eax
	jne	.L41
	.loc 1 224 0
	movq	80(%rbp), %rdx
	movq	72(%rbp), %rax
	movl	$-1, 48(%rsp)
	movq	$0, 40(%rsp)
	movl	$0, 32(%rsp)
	movl	$0, %r9d
	movq	%rdx, %r8
	movq	%rax, %rdx
	movl	$3, %ecx
	call	expr_create
	movq	%rax, -8(%rbp)
	.loc 1 225 0
	leaq	.LC51(%rip), %rcx
	call	puts
	jmp	.L29
.L41:
	.loc 1 227 0
	movq	176(%rbp), %rax
	addq	$103, %rax
	leaq	.LC8(%rip), %rdx
	movq	%rax, %rcx
	call	strcmp
	testl	%eax, %eax
	jne	.L42
	.loc 1 228 0
	movq	80(%rbp), %rdx
	movq	72(%rbp), %rax
	movl	$-1, 48(%rsp)
	movq	$0, 40(%rsp)
	movl	$0, 32(%rsp)
	movl	$0, %r9d
	movq	%rdx, %r8
	movq	%rax, %rdx
	movl	$13, %ecx
	call	expr_create
	movq	%rax, -8(%rbp)
	.loc 1 229 0
	leaq	.LC52(%rip), %rcx
	call	puts
	jmp	.L29
.L42:
	.loc 1 231 0
	movq	176(%rbp), %rax
	addq	$103, %rax
	leaq	.LC9(%rip), %rdx
	movq	%rax, %rcx
	call	strcmp
	testl	%eax, %eax
	jne	.L43
	.loc 1 232 0
	movq	80(%rbp), %rdx
	movq	72(%rbp), %rax
	movl	$-1, 48(%rsp)
	movq	$0, 40(%rsp)
	movl	$0, 32(%rsp)
	movl	$0, %r9d
	movq	%rdx, %r8
	movq	%rax, %rdx
	movl	$14, %ecx
	call	expr_create
	movq	%rax, -8(%rbp)
	.loc 1 233 0
	leaq	.LC52(%rip), %rcx
	call	puts
	jmp	.L29
.L43:
	.loc 1 235 0
	movq	176(%rbp), %rax
	addq	$103, %rax
	leaq	.LC10(%rip), %rdx
	movq	%rax, %rcx
	call	strcmp
	testl	%eax, %eax
	jne	.L44
	.loc 1 236 0
	movq	80(%rbp), %rdx
	movq	72(%rbp), %rax
	movl	$-1, 48(%rsp)
	movq	$0, 40(%rsp)
	movl	$0, 32(%rsp)
	movl	$0, %r9d
	movq	%rdx, %r8
	movq	%rax, %rdx
	movl	$11, %ecx
	call	expr_create
	movq	%rax, -8(%rbp)
	.loc 1 237 0
	leaq	.LC53(%rip), %rcx
	call	puts
	jmp	.L29
.L44:
	.loc 1 239 0
	movq	176(%rbp), %rax
	addq	$103, %rax
	leaq	.LC11(%rip), %rdx
	movq	%rax, %rcx
	call	strcmp
	testl	%eax, %eax
	jne	.L45
	.loc 1 240 0
	movq	80(%rbp), %rdx
	movq	72(%rbp), %rax
	movl	$-1, 48(%rsp)
	movq	$0, 40(%rsp)
	movl	$0, 32(%rsp)
	movl	$0, %r9d
	movq	%rdx, %r8
	movq	%rax, %rdx
	movl	$12, %ecx
	call	expr_create
	movq	%rax, -8(%rbp)
	.loc 1 241 0
	leaq	.LC54(%rip), %rcx
	call	puts
	jmp	.L29
.L45:
	.loc 1 243 0
	movq	176(%rbp), %rax
	addq	$103, %rax
	leaq	.LC12(%rip), %rdx
	movq	%rax, %rcx
	call	strcmp
	testl	%eax, %eax
	jne	.L46
	.loc 1 244 0
	movq	80(%rbp), %rdx
	movq	72(%rbp), %rax
	movl	$-1, 48(%rsp)
	movq	$0, 40(%rsp)
	movl	$0, 32(%rsp)
	movl	$0, %r9d
	movq	%rdx, %r8
	movq	%rax, %rdx
	movl	$15, %ecx
	call	expr_create
	movq	%rax, -8(%rbp)
	.loc 1 245 0
	leaq	.LC55(%rip), %rcx
	call	puts
	jmp	.L29
.L46:
.LBB7:
	.loc 1 248 0
	leaq	.LC56(%rip), %rcx
	call	puts
	.loc 1 249 0
	movl	$-1, 72(%rsp)
	movq	$0, 64(%rsp)
	movq	8(%rbp), %rax
	movq	%rax, 56(%rsp)
	movq	$0, 48(%rsp)
	movq	$0, 40(%rsp)
	movq	$0, 32(%rsp)
	movl	$0, %r9d
	movl	$0, %r8d
	movl	$0, %edx
	movl	$10, %ecx
	call	stmt_create
	movq	%rax, 88(%rbp)
	.loc 1 250 0
	movq	88(%rbp), %rdx
	movq	168(%rbp), %rax
	movl	$0, %r9d
	movq	%rdx, %r8
	movl	$0, %edx
	movq	%rax, %rcx
	call	push_commandList
	.loc 1 251 0
	movq	144(%rbp), %rax
	jmp	.L13
.L29:
.LBE7:
	.loc 1 255 0
	movl	$1, -36(%rbp)
	.loc 1 257 0
	movq	144(%rbp), %rax
	leaq	104(%rax), %rdx
	movq	176(%rbp), %rax
	addq	$106, %rax
	movq	%rax, %rcx
	call	strcpy
	.loc 1 258 0
	movq	-8(%rbp), %rdx
	movq	8(%rbp), %rax
	movq	%rax, %rcx
	call	push_expressionList
	.loc 1 259 0
	movq	144(%rbp), %rax
	movq	208(%rax), %rax
	movq	%rax, 144(%rbp)
	.loc 1 260 0
	cmpq	$0, 144(%rbp)
	jne	.L15
.LBB8:
	.loc 1 261 0
	leaq	.LC14(%rip), %rcx
	call	puts
	.loc 1 262 0
	movl	$-1, 72(%rsp)
	movq	$0, 64(%rsp)
	movq	8(%rbp), %rax
	movq	%rax, 56(%rsp)
	movq	$0, 48(%rsp)
	movq	$0, 40(%rsp)
	movq	$0, 32(%rsp)
	movl	$0, %r9d
	movl	$0, %r8d
	movl	$0, %edx
	movl	$10, %ecx
	call	stmt_create
	movq	%rax, 96(%rbp)
	.loc 1 263 0
	movq	96(%rbp), %rdx
	movq	168(%rbp), %rax
	movl	$0, %r9d
	movq	%rdx, %r8
	movl	$0, %edx
	movq	%rax, %rcx
	call	push_commandList
	.loc 1 264 0
	movq	144(%rbp), %rax
	jmp	.L13
.L15:
.LBE8:
.LBE6:
	.loc 1 85 0
	movq	144(%rbp), %rax
	addq	$4, %rax
	leaq	.LC18(%rip), %rdx
	movq	%rax, %rcx
	call	strcmp
	testl	%eax, %eax
	je	.L47
	.loc 1 85 0 is_stmt 0 discriminator 1
	movq	144(%rbp), %rax
	addq	$4, %rax
	leaq	.LC35(%rip), %rdx
	movq	%rax, %rcx
	call	strcmp
	testl	%eax, %eax
	je	.L47
	.loc 1 85 0 discriminator 2
	movq	144(%rbp), %rax
	addq	$4, %rax
	leaq	.LC57(%rip), %rdx
	movq	%rax, %rcx
	call	strcmp
	testl	%eax, %eax
	je	.L47
	.loc 1 268 0 is_stmt 1
	movq	144(%rbp), %rax
	addq	$4, %rax
	leaq	.LC21(%rip), %rdx
	movq	%rax, %rcx
	call	strcmp
	testl	%eax, %eax
	jne	.L48
	.loc 1 269 0
	movq	144(%rbp), %rax
	movq	208(%rax), %rax
	movq	%rax, 144(%rbp)
	.loc 1 270 0
	movq	144(%rbp), %rax
	movq	%rax, -32(%rbp)
	.loc 1 271 0
	cmpq	$0, 144(%rbp)
	je	.L48
	.loc 1 272 0
	movq	144(%rbp), %rax
	addq	$104, %rax
	movq	%rax, %rdx
	leaq	.LC58(%rip), %rcx
	call	printf
	.loc 1 273 0
	movq	144(%rbp), %rax
	addq	$4, %rax
	leaq	.LC35(%rip), %rdx
	movq	%rax, %rcx
	call	strcmp
	testl	%eax, %eax
	jne	.L48
.LBB9:
	.loc 1 274 0
	movq	144(%rbp), %rax
	addq	$104, %rax
	movq	%rax, %rdx
	leaq	.LC59(%rip), %rcx
	call	printf
	.loc 1 275 0
	movq	176(%rbp), %rax
	addq	$106, %rax
	movq	%rax, %rdx
	leaq	.LC60(%rip), %rcx
	call	printf
	.loc 1 276 0
	movq	176(%rbp), %rax
	addq	$106, %rax
	movq	%rax, %rcx
	call	expr_create_string
	movq	%rax, 40(%rbp)
	.loc 1 277 0
	movq	144(%rbp), %rax
	addq	$104, %rax
	movq	%rax, %rcx
	call	expr_create_string
	movq	%rax, 48(%rbp)
	.loc 1 280 0
	movl	160(%rbp), %eax
	movl	%eax, %edx
	leaq	.LC61(%rip), %rcx
	call	printf
	.loc 1 281 0
	movl	160(%rbp), %eax
	cmpl	$1, %eax
	jle	.L49
	.loc 1 282 0
	leaq	160(%rbp), %rax
	movq	%rax, %rcx
	call	pop
.L49:
	.loc 1 283 0
	movq	152(%rbp), %rax
	movq	%rax, %rdx
	leaq	.LC38(%rip), %rcx
	call	printf
	.loc 1 285 0
	movq	152(%rbp), %rax
	leaq	.LC4(%rip), %rdx
	movq	%rax, %rcx
	call	strcmp
	testl	%eax, %eax
	jne	.L50
	.loc 1 286 0
	leaq	.LC62(%rip), %rcx
	call	puts
	.loc 1 287 0
	movq	48(%rbp), %rdx
	movq	40(%rbp), %rax
	movl	$-1, 48(%rsp)
	movq	$0, 40(%rsp)
	movl	$0, 32(%rsp)
	movl	$0, %r9d
	movq	%rdx, %r8
	movq	%rax, %rdx
	movl	$0, %ecx
	call	expr_create
	movq	%rax, 0(%rbp)
	jmp	.L51
.L50:
	.loc 1 289 0
	movq	152(%rbp), %rax
	leaq	.LC5(%rip), %rdx
	movq	%rax, %rcx
	call	strcmp
	testl	%eax, %eax
	jne	.L52
	.loc 1 290 0
	leaq	.LC63(%rip), %rcx
	call	puts
	.loc 1 291 0
	movq	48(%rbp), %rdx
	movq	40(%rbp), %rax
	movl	$-1, 48(%rsp)
	movq	$0, 40(%rsp)
	movl	$0, 32(%rsp)
	movl	$0, %r9d
	movq	%rdx, %r8
	movq	%rax, %rdx
	movl	$1, %ecx
	call	expr_create
	movq	%rax, 0(%rbp)
	jmp	.L51
.L52:
	.loc 1 293 0
	movq	152(%rbp), %rax
	leaq	.LC6(%rip), %rdx
	movq	%rax, %rcx
	call	strcmp
	testl	%eax, %eax
	jne	.L53
	.loc 1 294 0
	leaq	.LC64(%rip), %rcx
	call	puts
	.loc 1 295 0
	movq	48(%rbp), %rdx
	movq	40(%rbp), %rax
	movl	$-1, 48(%rsp)
	movq	$0, 40(%rsp)
	movl	$0, 32(%rsp)
	movl	$0, %r9d
	movq	%rdx, %r8
	movq	%rax, %rdx
	movl	$2, %ecx
	call	expr_create
	movq	%rax, 0(%rbp)
	jmp	.L51
.L53:
	.loc 1 297 0
	movq	152(%rbp), %rax
	leaq	.LC7(%rip), %rdx
	movq	%rax, %rcx
	call	strcmp
	testl	%eax, %eax
	jne	.L54
	.loc 1 298 0
	leaq	.LC65(%rip), %rcx
	call	puts
	.loc 1 299 0
	movq	48(%rbp), %rdx
	movq	40(%rbp), %rax
	movl	$-1, 48(%rsp)
	movq	$0, 40(%rsp)
	movl	$0, 32(%rsp)
	movl	$0, %r9d
	movq	%rdx, %r8
	movq	%rax, %rdx
	movl	$3, %ecx
	call	expr_create
	movq	%rax, 0(%rbp)
	jmp	.L51
.L54:
	.loc 1 301 0
	movq	152(%rbp), %rax
	leaq	.LC8(%rip), %rdx
	movq	%rax, %rcx
	call	strcmp
	testl	%eax, %eax
	jne	.L55
	.loc 1 302 0
	leaq	.LC66(%rip), %rcx
	call	puts
	.loc 1 303 0
	movq	48(%rbp), %rdx
	movq	40(%rbp), %rax
	movl	$-1, 48(%rsp)
	movq	$0, 40(%rsp)
	movl	$0, 32(%rsp)
	movl	$0, %r9d
	movq	%rdx, %r8
	movq	%rax, %rdx
	movl	$13, %ecx
	call	expr_create
	movq	%rax, 0(%rbp)
	jmp	.L51
.L55:
	.loc 1 305 0
	movq	152(%rbp), %rax
	leaq	.LC9(%rip), %rdx
	movq	%rax, %rcx
	call	strcmp
	testl	%eax, %eax
	jne	.L56
	.loc 1 306 0
	leaq	.LC67(%rip), %rcx
	call	puts
	.loc 1 307 0
	movq	48(%rbp), %rdx
	movq	40(%rbp), %rax
	movl	$-1, 48(%rsp)
	movq	$0, 40(%rsp)
	movl	$0, 32(%rsp)
	movl	$0, %r9d
	movq	%rdx, %r8
	movq	%rax, %rdx
	movl	$14, %ecx
	call	expr_create
	movq	%rax, 0(%rbp)
	jmp	.L51
.L56:
	.loc 1 309 0
	movq	152(%rbp), %rax
	leaq	.LC10(%rip), %rdx
	movq	%rax, %rcx
	call	strcmp
	testl	%eax, %eax
	jne	.L57
	.loc 1 310 0
	leaq	.LC68(%rip), %rcx
	call	puts
	.loc 1 311 0
	movq	48(%rbp), %rdx
	movq	40(%rbp), %rax
	movl	$-1, 48(%rsp)
	movq	$0, 40(%rsp)
	movl	$0, 32(%rsp)
	movl	$0, %r9d
	movq	%rdx, %r8
	movq	%rax, %rdx
	movl	$11, %ecx
	call	expr_create
	movq	%rax, 0(%rbp)
	jmp	.L51
.L57:
	.loc 1 313 0
	movq	152(%rbp), %rax
	leaq	.LC11(%rip), %rdx
	movq	%rax, %rcx
	call	strcmp
	testl	%eax, %eax
	jne	.L58
	.loc 1 314 0
	leaq	.LC69(%rip), %rcx
	call	puts
	.loc 1 315 0
	movq	48(%rbp), %rdx
	movq	40(%rbp), %rax
	movl	$-1, 48(%rsp)
	movq	$0, 40(%rsp)
	movl	$0, 32(%rsp)
	movl	$0, %r9d
	movq	%rdx, %r8
	movq	%rax, %rdx
	movl	$12, %ecx
	call	expr_create
	movq	%rax, 0(%rbp)
	jmp	.L51
.L58:
	.loc 1 317 0
	movq	152(%rbp), %rax
	leaq	.LC12(%rip), %rdx
	movq	%rax, %rcx
	call	strcmp
	testl	%eax, %eax
	jne	.L51
	.loc 1 318 0
	leaq	.LC70(%rip), %rcx
	call	puts
	.loc 1 319 0
	movq	48(%rbp), %rdx
	movq	40(%rbp), %rax
	movl	$-1, 48(%rsp)
	movq	$0, 40(%rsp)
	movl	$0, 32(%rsp)
	movl	$0, %r9d
	movq	%rdx, %r8
	movq	%rax, %rdx
	movl	$15, %ecx
	call	expr_create
	movq	%rax, 0(%rbp)
.L51:
	.loc 1 325 0
	movq	0(%rbp), %rdx
	movq	8(%rbp), %rax
	movq	%rax, %rcx
	call	push_expressionList
	.loc 1 326 0
	movl	$-1, 72(%rsp)
	movq	$0, 64(%rsp)
	movq	8(%rbp), %rax
	movq	%rax, 56(%rsp)
	movq	$0, 48(%rsp)
	movq	$0, 40(%rsp)
	movq	$0, 32(%rsp)
	movl	$0, %r9d
	movl	$0, %r8d
	movl	$0, %edx
	movl	$10, %ecx
	call	stmt_create
	movq	%rax, 56(%rbp)
	.loc 1 327 0
	movq	56(%rbp), %rdx
	movq	168(%rbp), %rax
	movl	$0, %r9d
	movq	%rdx, %r8
	movl	$0, %edx
	movq	%rax, %rcx
	call	push_commandList
.L48:
.LBE9:
	.loc 1 332 0
	leaq	.LC71(%rip), %rcx
	call	puts
	.loc 1 334 0
	cmpq	$0, 144(%rbp)
	jne	.L59
	.loc 1 335 0
	leaq	.LC72(%rip), %rcx
	call	puts
	.loc 1 336 0
	movl	$0, %eax
	jmp	.L13
.L59:
	.loc 1 339 0
	movq	144(%rbp), %rax
	addq	$4, %rax
	leaq	.LC21(%rip), %rdx
	movq	%rax, %rcx
	call	strcmp
	testl	%eax, %eax
	jne	.L60
	.loc 1 340 0
	movq	144(%rbp), %rax
	movq	208(%rax), %rax
	movq	%rax, 144(%rbp)
	.loc 1 341 0
	cmpq	$0, 144(%rbp)
	je	.L61
	.loc 1 342 0
	movq	144(%rbp), %rax
	addq	$104, %rax
	movq	%rax, %rdx
	leaq	.LC73(%rip), %rcx
	call	printf
.L61:
	.loc 1 345 0
	leaq	.LC74(%rip), %rcx
	call	puts
	jmp	.L62
.L60:
	.loc 1 348 0
	movq	144(%rbp), %rax
	addq	$104, %rax
	movq	%rax, %rdx
	leaq	.LC75(%rip), %rcx
	call	printf
	.loc 1 349 0
	movq	144(%rbp), %rax
	leaq	104(%rax), %rdx
	movq	-32(%rbp), %rax
	addq	$104, %rax
	movq	%rax, %rcx
	call	strcmp
	testl	%eax, %eax
	je	.L62
.LBB10:
	.loc 1 350 0
	movl	$-1, 72(%rsp)
	movq	$0, 64(%rsp)
	movq	8(%rbp), %rax
	movq	%rax, 56(%rsp)
	movq	$0, 48(%rsp)
	movq	$0, 40(%rsp)
	movq	$0, 32(%rsp)
	movl	$0, %r9d
	movl	$0, %r8d
	movl	$0, %edx
	movl	$10, %ecx
	call	stmt_create
	movq	%rax, 64(%rbp)
	.loc 1 351 0
	movq	64(%rbp), %rdx
	movq	168(%rbp), %rax
	movl	$0, %r9d
	movq	%rdx, %r8
	movl	$0, %edx
	movq	%rax, %rcx
	call	push_commandList
	.loc 1 352 0
	movq	144(%rbp), %rax
	jmp	.L13
.L62:
.LBE10:
	.loc 1 356 0
	movq	144(%rbp), %rax
	movq	208(%rax), %rax
	movq	%rax, 144(%rbp)
	.loc 1 357 0
	cmpq	$0, 144(%rbp)
	jne	.L63
	.loc 1 358 0
	leaq	.LC76(%rip), %rcx
	call	puts
	.loc 1 359 0
	movl	$0, %eax
	jmp	.L13
.L63:
	.loc 1 362 0
	movq	144(%rbp), %rax
	addq	$4, %rax
	leaq	.LC21(%rip), %rdx
	movq	%rax, %rcx
	call	strcmp
	testl	%eax, %eax
	jne	.L64
	.loc 1 363 0
	movq	144(%rbp), %rax
	movq	208(%rax), %rax
	movq	%rax, 144(%rbp)
	.loc 1 364 0
	cmpq	$0, 144(%rbp)
	je	.L65
	.loc 1 365 0
	movq	144(%rbp), %rax
	addq	$104, %rax
	movq	%rax, %rdx
	leaq	.LC73(%rip), %rcx
	call	printf
	.loc 1 366 0
	movq	144(%rbp), %rax
	jmp	.L13
.L65:
	.loc 1 369 0
	leaq	.LC74(%rip), %rcx
	call	puts
	.loc 1 370 0
	movl	$0, %eax
	jmp	.L13
.L64:
	.loc 1 373 0
	movq	144(%rbp), %rax
.L13:
	.loc 1 374 0
	addq	$256, %rsp
	popq	%rbp
	.cfi_restore 6
	.cfi_def_cfa 7, -248
	ret
	.cfi_endproc
.LFE9:
	.seh_endproc
	.globl	isIdentifierType
	.def	isIdentifierType;	.scl	2;	.type	32;	.endef
	.seh_proc	isIdentifierType
isIdentifierType:
.LFB10:
	.loc 1 379 0
	.cfi_startproc
	pushq	%rbp
	.seh_pushreg	%rbp
	.cfi_def_cfa_offset 16
	.cfi_offset 6, -16
	movq	%rsp, %rbp
	.seh_setframe	%rbp, 0
	.cfi_def_cfa_register 6
	subq	$32, %rsp
	.seh_stackalloc	32
	.seh_endprologue
	movq	%rcx, 16(%rbp)
	.loc 1 380 0
	leaq	.LC35(%rip), %rdx
	movq	16(%rbp), %rcx
	call	strcmp
	testl	%eax, %eax
	jne	.L67
	.loc 1 380 0 is_stmt 0 discriminator 1
	movl	$1, %eax
	jmp	.L68
.L67:
	.loc 1 380 0 discriminator 2
	movl	$0, %eax
.L68:
	.loc 1 381 0 is_stmt 1
	addq	$32, %rsp
	popq	%rbp
	.cfi_restore 6
	.cfi_def_cfa 7, 8
	ret
	.cfi_endproc
.LFE10:
	.seh_endproc
	.globl	isNumberType
	.def	isNumberType;	.scl	2;	.type	32;	.endef
	.seh_proc	isNumberType
isNumberType:
.LFB11:
	.loc 1 386 0
	.cfi_startproc
	pushq	%rbp
	.seh_pushreg	%rbp
	.cfi_def_cfa_offset 16
	.cfi_offset 6, -16
	movq	%rsp, %rbp
	.seh_setframe	%rbp, 0
	.cfi_def_cfa_register 6
	subq	$32, %rsp
	.seh_stackalloc	32
	.seh_endprologue
	movq	%rcx, 16(%rbp)
	.loc 1 387 0
	leaq	.LC57(%rip), %rdx
	movq	16(%rbp), %rcx
	call	strcmp
	testl	%eax, %eax
	jne	.L70
	.loc 1 387 0 is_stmt 0 discriminator 1
	movl	$1, %eax
	jmp	.L71
.L70:
	.loc 1 387 0 discriminator 2
	movl	$0, %eax
.L71:
	.loc 1 388 0 is_stmt 1
	addq	$32, %rsp
	popq	%rbp
	.cfi_restore 6
	.cfi_def_cfa 7, 8
	ret
	.cfi_endproc
.LFE11:
	.seh_endproc
	.section .rdata,"dr"
	.align 8
.LC77:
	.ascii "Going to build import statement with string : %s\12\0"
	.align 8
.LC78:
	.ascii "Going to build load statement with string : %s\12\0"
	.align 8
.LC79:
	.ascii "Going to build print statement with string : %s\12\0"
	.align 8
.LC80:
	.ascii "Going to build sleep statement with string : %s\12\0"
	.align 8
.LC81:
	.ascii "Going to build scan statement with string : %s\12\0"
	.align 8
.LC82:
	.ascii "Going to build delete statement with string : %s\12\0"
	.text
	.globl	BuildSingleExprStatement
	.def	BuildSingleExprStatement;	.scl	2;	.type	32;	.endef
	.seh_proc	BuildSingleExprStatement
BuildSingleExprStatement:
.LFB12:
	.loc 1 393 0
	.cfi_startproc
	pushq	%rbp
	.seh_pushreg	%rbp
	.cfi_def_cfa_offset 16
	.cfi_offset 6, -16
	movq	%rsp, %rbp
	.seh_setframe	%rbp, 0
	.cfi_def_cfa_register 6
	subq	$96, %rsp
	.seh_stackalloc	96
	.seh_endprologue
	movq	%rcx, 16(%rbp)
	movq	%rdx, 24(%rbp)
	movl	%r8d, 32(%rbp)
	.loc 1 394 0
	movq	16(%rbp), %rcx
	call	expr_create_string
	movq	%rax, -8(%rbp)
	.loc 1 397 0
	cmpl	$6, 32(%rbp)
	ja	.L82
	movl	32(%rbp), %eax
	leaq	0(,%rax,4), %rdx
	leaq	.L75(%rip), %rax
	movl	(%rdx,%rax), %eax
	movslq	%eax, %rdx
	leaq	.L75(%rip), %rax
	addq	%rdx, %rax
	jmp	*%rax
	.section .rdata,"dr"
	.align 4
.L75:
	.long	.L82-.L75
	.long	.L74-.L75
	.long	.L76-.L75
	.long	.L77-.L75
	.long	.L78-.L75
	.long	.L79-.L75
	.long	.L80-.L75
	.text
.L74:
	.loc 1 399 0
	movq	16(%rbp), %rdx
	leaq	.LC77(%rip), %rcx
	call	printf
	.loc 1 400 0
	movq	-8(%rbp), %rax
	movl	$-1, 72(%rsp)
	movq	$0, 64(%rsp)
	movq	$0, 56(%rsp)
	movq	$0, 48(%rsp)
	movq	$0, 40(%rsp)
	movq	$0, 32(%rsp)
	movq	%rax, %r9
	movl	$0, %r8d
	movl	$0, %edx
	movl	$5, %ecx
	call	stmt_create
	movq	%rax, -16(%rbp)
	.loc 1 401 0
	jmp	.L81
.L76:
	.loc 1 403 0
	movq	16(%rbp), %rdx
	leaq	.LC78(%rip), %rcx
	call	printf
	.loc 1 404 0
	movq	-8(%rbp), %rax
	movl	$-1, 72(%rsp)
	movq	$0, 64(%rsp)
	movq	$0, 56(%rsp)
	movq	$0, 48(%rsp)
	movq	$0, 40(%rsp)
	movq	$0, 32(%rsp)
	movq	%rax, %r9
	movl	$0, %r8d
	movl	$0, %edx
	movl	$6, %ecx
	call	stmt_create
	movq	%rax, -16(%rbp)
	.loc 1 405 0
	jmp	.L81
.L77:
	.loc 1 407 0
	movq	16(%rbp), %rdx
	leaq	.LC79(%rip), %rcx
	call	printf
	.loc 1 408 0
	movq	-8(%rbp), %rax
	movl	$-1, 72(%rsp)
	movq	$0, 64(%rsp)
	movq	$0, 56(%rsp)
	movq	$0, 48(%rsp)
	movq	$0, 40(%rsp)
	movq	$0, 32(%rsp)
	movq	%rax, %r9
	movl	$0, %r8d
	movl	$0, %edx
	movl	$4, %ecx
	call	stmt_create
	movq	%rax, -16(%rbp)
	.loc 1 409 0
	jmp	.L81
.L78:
	.loc 1 411 0
	movq	16(%rbp), %rdx
	leaq	.LC80(%rip), %rcx
	call	printf
	.loc 1 412 0
	movq	-8(%rbp), %rax
	movl	$-1, 72(%rsp)
	movq	$0, 64(%rsp)
	movq	$0, 56(%rsp)
	movq	$0, 48(%rsp)
	movq	$0, 40(%rsp)
	movq	$0, 32(%rsp)
	movq	%rax, %r9
	movl	$0, %r8d
	movl	$0, %edx
	movl	$15, %ecx
	call	stmt_create
	movq	%rax, -16(%rbp)
	.loc 1 413 0
	jmp	.L81
.L79:
	.loc 1 415 0
	movq	16(%rbp), %rdx
	leaq	.LC81(%rip), %rcx
	call	printf
	.loc 1 416 0
	movq	-8(%rbp), %rax
	movl	$-1, 72(%rsp)
	movq	$0, 64(%rsp)
	movq	$0, 56(%rsp)
	movq	$0, 48(%rsp)
	movq	$0, 40(%rsp)
	movq	$0, 32(%rsp)
	movq	%rax, %r9
	movl	$0, %r8d
	movl	$0, %edx
	movl	$17, %ecx
	call	stmt_create
	movq	%rax, -16(%rbp)
	.loc 1 417 0
	jmp	.L81
.L80:
	.loc 1 419 0
	movq	16(%rbp), %rdx
	leaq	.LC82(%rip), %rcx
	call	printf
	.loc 1 420 0
	movq	-8(%rbp), %rax
	movl	$-1, 72(%rsp)
	movq	$0, 64(%rsp)
	movq	$0, 56(%rsp)
	movq	$0, 48(%rsp)
	movq	$0, 40(%rsp)
	movq	$0, 32(%rsp)
	movq	%rax, %r9
	movl	$0, %r8d
	movl	$0, %edx
	movl	$7, %ecx
	call	stmt_create
	movq	%rax, -16(%rbp)
	.loc 1 421 0
	jmp	.L81
.L82:
	.loc 1 423 0
	nop
.L81:
	.loc 1 425 0
	movq	-16(%rbp), %rdx
	movq	24(%rbp), %rax
	movl	$0, %r9d
	movq	%rdx, %r8
	movl	$0, %edx
	movq	%rax, %rcx
	call	push_commandList
	.loc 1 426 0
	nop
	addq	$96, %rsp
	popq	%rbp
	.cfi_restore 6
	.cfi_def_cfa 7, 8
	ret
	.cfi_endproc
.LFE12:
	.seh_endproc
	.section .rdata,"dr"
.LC83:
	.ascii "parenthesis\0"
	.align 8
.LC84:
	.ascii "Going to build cast statement with string : %s\12\0"
	.align 8
.LC85:
	.ascii "Going to build array_add statement with string : %s\12\0"
	.text
	.globl	BuildDoubleExprStatement
	.def	BuildDoubleExprStatement;	.scl	2;	.type	32;	.endef
	.seh_proc	BuildDoubleExprStatement
BuildDoubleExprStatement:
.LFB13:
	.loc 1 429 0
	.cfi_startproc
	pushq	%rbp
	.seh_pushreg	%rbp
	.cfi_def_cfa_offset 16
	.cfi_offset 6, -16
	subq	$352, %rsp
	.seh_stackalloc	352
	.cfi_def_cfa_offset 368
	leaq	128(%rsp), %rbp
	.seh_setframe	%rbp, 128
	.cfi_def_cfa 6, 240
	.seh_endprologue
	movq	%rcx, -40(%rbp)
	movq	%rdx, -48(%rbp)
	movl	%r8d, 256(%rbp)
	.loc 1 429 0
	movq	.refptr.__stack_chk_guard(%rip), %rax
	movq	(%rax), %rcx
	movq	%rcx, 216(%rbp)
	xorl	%ecx, %ecx
	.loc 1 433 0
	movq	-40(%rbp), %rax
	leaq	104(%rax), %rdx
	movq	%rbp, %rax
	movq	%rax, %rcx
	call	strcpy
	.loc 1 434 0
	movq	-40(%rbp), %rax
	movq	208(%rax), %rax
	movq	%rax, -40(%rbp)
	.loc 1 435 0
	movq	-40(%rbp), %rax
	addq	$4, %rax
	leaq	.LC83(%rip), %rdx
	movq	%rax, %rcx
	call	strcmp
	testl	%eax, %eax
	jne	.L84
	.loc 1 436 0
	movq	-40(%rbp), %rax
	movq	208(%rax), %rax
	movq	%rax, -40(%rbp)
	.loc 1 437 0
	movq	-40(%rbp), %rax
	leaq	104(%rax), %rdx
	leaq	112(%rbp), %rax
	movq	%rax, %rcx
	call	strcpy
.L84:
	.loc 1 439 0
	movq	%rbp, %rax
	movq	%rax, %rcx
	call	expr_create_string
	movq	%rax, -16(%rbp)
	.loc 1 440 0
	leaq	112(%rbp), %rax
	movq	%rax, %rcx
	call	expr_create_string
	movq	%rax, -8(%rbp)
	.loc 1 442 0
	movl	256(%rbp), %eax
	cmpl	$1, %eax
	je	.L86
	cmpl	$2, %eax
	je	.L87
	.loc 1 452 0
	jmp	.L88
.L86:
	.loc 1 444 0
	movq	-40(%rbp), %rax
	addq	$104, %rax
	movq	%rax, %rdx
	leaq	.LC84(%rip), %rcx
	call	printf
	.loc 1 445 0
	movq	-16(%rbp), %rdx
	movl	$-1, 72(%rsp)
	movq	$0, 64(%rsp)
	movq	$0, 56(%rsp)
	movq	$0, 48(%rsp)
	movq	$0, 40(%rsp)
	movq	-8(%rbp), %rax
	movq	%rax, 32(%rsp)
	movq	%rdx, %r9
	movl	$0, %r8d
	movl	$0, %edx
	movl	$18, %ecx
	call	stmt_create
	movq	%rax, -24(%rbp)
	.loc 1 446 0
	jmp	.L88
.L87:
	.loc 1 448 0
	movq	-40(%rbp), %rax
	addq	$104, %rax
	movq	%rax, %rdx
	leaq	.LC85(%rip), %rcx
	call	printf
	.loc 1 449 0
	movq	-16(%rbp), %rdx
	movl	$-1, 72(%rsp)
	movq	$0, 64(%rsp)
	movq	$0, 56(%rsp)
	movq	$0, 48(%rsp)
	movq	$0, 40(%rsp)
	movq	-8(%rbp), %rax
	movq	%rax, 32(%rsp)
	movq	%rdx, %r9
	movl	$0, %r8d
	movl	$0, %edx
	movl	$20, %ecx
	call	stmt_create
	movq	%rax, -24(%rbp)
	.loc 1 450 0
	nop
.L88:
	.loc 1 454 0
	movq	-24(%rbp), %rdx
	movq	-48(%rbp), %rax
	movl	$0, %r9d
	movq	%rdx, %r8
	movl	$0, %edx
	movq	%rax, %rcx
	call	push_commandList
	.loc 1 455 0
	nop
	movq	.refptr.__stack_chk_guard(%rip), %rax
	movq	216(%rbp), %rcx
	xorq	(%rax), %rcx
	je	.L89
	call	__stack_chk_fail
	nop
.L89:
	addq	$352, %rsp
	popq	%rbp
	.cfi_restore 6
	.cfi_def_cfa 7, -344
	ret
	.cfi_endproc
.LFE13:
	.seh_endproc
	.section .rdata,"dr"
	.align 8
.LC86:
	.ascii "Going to build hexadecimal number declaration statement.\0"
	.align 8
.LC87:
	.ascii "Going to build int declaration statement.\0"
	.align 8
.LC88:
	.ascii "Going to build float declaration statement.\0"
	.align 8
.LC89:
	.ascii "Going to build character declaration statement.\0"
	.align 8
.LC90:
	.ascii "Going to build string declaration statement.\0"
	.align 8
.LC91:
	.ascii "Going to build string pointer declaration statement.\0"
	.align 8
.LC92:
	.ascii "Going to build float pointer declaration statement.\0"
	.align 8
.LC93:
	.ascii "Going to build int pointer declaration statement.\0"
	.align 8
.LC94:
	.ascii "Going to build char pointer declaration statement.\0"
	.align 8
.LC95:
	.ascii "Going to build bool declaration statement.\0"
	.align 8
.LC96:
	.ascii "Going to build void declaration statement.\0"
	.align 8
.LC97:
	.ascii "Going to build int array declaration statement.\0"
	.align 8
.LC98:
	.ascii "Going to build string array declaration statement.\0"
	.align 8
.LC99:
	.ascii "Going to build float array declaration statement.\0"
	.align 8
.LC100:
	.ascii "Going to build void array declaration statement.\0"
	.align 8
.LC101:
	.ascii "Going to build boolean array declaration statement.\0"
	.align 8
.LC102:
	.ascii "Going to build char array declaration statement.\0"
	.align 8
.LC103:
	.ascii "Going to build int pointer array declaration statement.\0"
	.align 8
.LC104:
	.ascii "Going to build string pointer array declaration statement.\0"
	.align 8
.LC105:
	.ascii "Going to build float pointer array declaration statement.\0"
	.align 8
.LC106:
	.ascii "Going to build void pointer array declaration statement.\0"
	.align 8
.LC107:
	.ascii "Going to build char pointer array declaration statement.\0"
	.text
	.globl	BuildDeclarationExprStatement
	.def	BuildDeclarationExprStatement;	.scl	2;	.type	32;	.endef
	.seh_proc	BuildDeclarationExprStatement
BuildDeclarationExprStatement:
.LFB14:
	.loc 1 458 0
	.cfi_startproc
	pushq	%rbp
	.seh_pushreg	%rbp
	.cfi_def_cfa_offset 16
	.cfi_offset 6, -16
	movq	%rsp, %rbp
	.seh_setframe	%rbp, 0
	.cfi_def_cfa_register 6
	subq	$112, %rsp
	.seh_stackalloc	112
	.seh_endprologue
	movq	%rcx, 16(%rbp)
	movq	%rdx, 24(%rbp)
	movq	%r8, 32(%rbp)
	movl	%r9d, 40(%rbp)
	.loc 1 462 0
	cmpl	$23, 40(%rbp)
	ja	.L117
	movl	40(%rbp), %eax
	leaq	0(,%rax,4), %rdx
	leaq	.L93(%rip), %rax
	movl	(%rdx,%rax), %eax
	movslq	%eax, %rdx
	leaq	.L93(%rip), %rax
	addq	%rdx, %rax
	jmp	*%rax
	.section .rdata,"dr"
	.align 4
.L93:
	.long	.L117-.L93
	.long	.L92-.L93
	.long	.L94-.L93
	.long	.L95-.L93
	.long	.L96-.L93
	.long	.L97-.L93
	.long	.L98-.L93
	.long	.L99-.L93
	.long	.L100-.L93
	.long	.L101-.L93
	.long	.L102-.L93
	.long	.L103-.L93
	.long	.L104-.L93
	.long	.L105-.L93
	.long	.L106-.L93
	.long	.L107-.L93
	.long	.L108-.L93
	.long	.L109-.L93
	.long	.L110-.L93
	.long	.L111-.L93
	.long	.L112-.L93
	.long	.L113-.L93
	.long	.L114-.L93
	.long	.L115-.L93
	.text
.L92:
	.loc 1 464 0
	leaq	.LC86(%rip), %rcx
	call	puts
	.loc 1 465 0
	movl	$0, %r8d
	movl	$0, %edx
	movl	$12, %ecx
	call	type_create
	movq	%rax, -32(%rbp)
	.loc 1 466 0
	jmp	.L116
.L94:
	.loc 1 468 0
	leaq	.LC87(%rip), %rcx
	call	puts
	.loc 1 469 0
	movl	$0, %r8d
	movl	$0, %edx
	movl	$3, %ecx
	call	type_create
	movq	%rax, -32(%rbp)
	.loc 1 470 0
	jmp	.L116
.L95:
	.loc 1 472 0
	leaq	.LC88(%rip), %rcx
	call	puts
	.loc 1 473 0
	movl	$0, %r8d
	movl	$0, %edx
	movl	$5, %ecx
	call	type_create
	movq	%rax, -32(%rbp)
	.loc 1 474 0
	jmp	.L116
.L96:
	.loc 1 476 0
	leaq	.LC89(%rip), %rcx
	call	puts
	.loc 1 477 0
	movl	$0, %r8d
	movl	$0, %edx
	movl	$2, %ecx
	call	type_create
	movq	%rax, -32(%rbp)
	.loc 1 478 0
	jmp	.L116
.L97:
	.loc 1 480 0
	leaq	.LC90(%rip), %rcx
	call	puts
	.loc 1 481 0
	movl	$0, %r8d
	movl	$0, %edx
	movl	$4, %ecx
	call	type_create
	movq	%rax, -32(%rbp)
	.loc 1 482 0
	jmp	.L116
.L98:
	.loc 1 484 0
	leaq	.LC91(%rip), %rcx
	call	puts
	.loc 1 485 0
	movl	$0, %r8d
	movl	$0, %edx
	movl	$9, %ecx
	call	type_create
	movq	%rax, -32(%rbp)
	.loc 1 486 0
	jmp	.L116
.L99:
	.loc 1 488 0
	leaq	.LC92(%rip), %rcx
	call	puts
	.loc 1 489 0
	movl	$0, %r8d
	movl	$0, %edx
	movl	$6, %ecx
	call	type_create
	movq	%rax, -32(%rbp)
	.loc 1 490 0
	jmp	.L116
.L100:
	.loc 1 492 0
	leaq	.LC93(%rip), %rcx
	call	puts
	.loc 1 493 0
	movl	$0, %r8d
	movl	$0, %edx
	movl	$7, %ecx
	call	type_create
	movq	%rax, -32(%rbp)
	.loc 1 494 0
	jmp	.L116
.L101:
	.loc 1 496 0
	leaq	.LC94(%rip), %rcx
	call	puts
	.loc 1 497 0
	movl	$0, %r8d
	movl	$0, %edx
	movl	$8, %ecx
	call	type_create
	movq	%rax, -32(%rbp)
	.loc 1 498 0
	jmp	.L116
.L102:
	.loc 1 500 0
	leaq	.LC95(%rip), %rcx
	call	puts
	.loc 1 501 0
	movl	$0, %r8d
	movl	$0, %edx
	movl	$1, %ecx
	call	type_create
	movq	%rax, -32(%rbp)
	.loc 1 502 0
	jmp	.L116
.L103:
	.loc 1 504 0
	leaq	.LC96(%rip), %rcx
	call	puts
	.loc 1 505 0
	movl	$0, %r8d
	movl	$0, %edx
	movl	$10, %ecx
	call	type_create
	movq	%rax, -32(%rbp)
	.loc 1 506 0
	jmp	.L116
.L104:
	.loc 1 508 0
	leaq	.LC96(%rip), %rcx
	call	puts
	.loc 1 509 0
	movl	$0, %r8d
	movl	$0, %edx
	movl	$0, %ecx
	call	type_create
	movq	%rax, -32(%rbp)
	.loc 1 510 0
	jmp	.L116
.L105:
	.loc 1 512 0
	leaq	.LC97(%rip), %rcx
	call	puts
	.loc 1 513 0
	movl	$0, %r8d
	movl	$0, %edx
	movl	$19, %ecx
	call	type_create
	movq	%rax, -32(%rbp)
	.loc 1 514 0
	jmp	.L116
.L106:
	.loc 1 516 0
	leaq	.LC98(%rip), %rcx
	call	puts
	.loc 1 517 0
	movl	$0, %r8d
	movl	$0, %edx
	movl	$20, %ecx
	call	type_create
	movq	%rax, -32(%rbp)
	.loc 1 518 0
	jmp	.L116
.L107:
	.loc 1 520 0
	leaq	.LC99(%rip), %rcx
	call	puts
	.loc 1 521 0
	movl	$0, %r8d
	movl	$0, %edx
	movl	$21, %ecx
	call	type_create
	movq	%rax, -32(%rbp)
	.loc 1 522 0
	jmp	.L116
.L108:
	.loc 1 524 0
	leaq	.LC100(%rip), %rcx
	call	puts
	.loc 1 525 0
	movl	$0, %r8d
	movl	$0, %edx
	movl	$16, %ecx
	call	type_create
	movq	%rax, -32(%rbp)
	.loc 1 526 0
	jmp	.L116
.L109:
	.loc 1 528 0
	leaq	.LC101(%rip), %rcx
	call	puts
	.loc 1 529 0
	movl	$0, %r8d
	movl	$0, %edx
	movl	$17, %ecx
	call	type_create
	movq	%rax, -32(%rbp)
	.loc 1 530 0
	jmp	.L116
.L110:
	.loc 1 532 0
	leaq	.LC102(%rip), %rcx
	call	puts
	.loc 1 533 0
	movl	$0, %r8d
	movl	$0, %edx
	movl	$18, %ecx
	call	type_create
	movq	%rax, -32(%rbp)
	.loc 1 534 0
	jmp	.L116
.L111:
	.loc 1 536 0
	leaq	.LC103(%rip), %rcx
	call	puts
	.loc 1 537 0
	movl	$0, %r8d
	movl	$0, %edx
	movl	$26, %ecx
	call	type_create
	movq	%rax, -32(%rbp)
	.loc 1 538 0
	jmp	.L116
.L112:
	.loc 1 540 0
	leaq	.LC104(%rip), %rcx
	call	puts
	.loc 1 541 0
	movl	$0, %r8d
	movl	$0, %edx
	movl	$28, %ecx
	call	type_create
	movq	%rax, -32(%rbp)
	.loc 1 542 0
	jmp	.L116
.L113:
	.loc 1 544 0
	leaq	.LC105(%rip), %rcx
	call	puts
	.loc 1 545 0
	movl	$0, %r8d
	movl	$0, %edx
	movl	$25, %ecx
	call	type_create
	movq	%rax, -32(%rbp)
	.loc 1 546 0
	jmp	.L116
.L114:
	.loc 1 548 0
	leaq	.LC106(%rip), %rcx
	call	puts
	.loc 1 549 0
	movl	$0, %r8d
	movl	$0, %edx
	movl	$29, %ecx
	call	type_create
	movq	%rax, -32(%rbp)
	.loc 1 550 0
	jmp	.L116
.L115:
	.loc 1 552 0
	leaq	.LC107(%rip), %rcx
	call	puts
	.loc 1 553 0
	movl	$0, %r8d
	movl	$0, %edx
	movl	$27, %ecx
	call	type_create
	movq	%rax, -32(%rbp)
	.loc 1 554 0
	jmp	.L116
.L117:
	.loc 1 556 0
	nop
.L116:
	.loc 1 559 0
	movq	16(%rbp), %rcx
	call	expr_create_string
	movq	%rax, -24(%rbp)
	.loc 1 560 0
	movq	-24(%rbp), %rcx
	movq	-32(%rbp), %rdx
	movq	32(%rbp), %rax
	movl	$0, %r9d
	movq	%rcx, %r8
	movq	%rax, %rcx
	call	decl_create
	movq	%rax, -16(%rbp)
	.loc 1 561 0
	movq	-16(%rbp), %rax
	movl	48(%rbp), %edx
	movl	%edx, 72(%rsp)
	movq	$0, 64(%rsp)
	movq	$0, 56(%rsp)
	movq	$0, 48(%rsp)
	movq	$0, 40(%rsp)
	movq	$0, 32(%rsp)
	movl	$0, %r9d
	movl	$0, %r8d
	movq	%rax, %rdx
	movl	$0, %ecx
	call	stmt_create
	movq	%rax, -8(%rbp)
	.loc 1 562 0
	movq	-8(%rbp), %rdx
	movq	24(%rbp), %rax
	movl	$0, %r9d
	movq	%rdx, %r8
	movl	$0, %edx
	movq	%rax, %rcx
	call	push_commandList
	.loc 1 563 0
	nop
	addq	$112, %rsp
	popq	%rbp
	.cfi_restore 6
	.cfi_def_cfa 7, 8
	ret
	.cfi_endproc
.LFE14:
	.seh_endproc
	.section .rdata,"dr"
	.align 8
.LC108:
	.ascii "Going to build add assignment expression statement.\0"
	.align 8
.LC109:
	.ascii "Going to build sub assignment expression statement.\0"
	.align 8
.LC110:
	.ascii "Going to build mul assignment expression statement.\0"
	.align 8
.LC111:
	.ascii "Going to build div assignment expression statement.\0"
	.align 8
.LC112:
	.ascii "Going to build bigger expression statement.\0"
	.align 8
.LC113:
	.ascii "Going to build bigger or equal expression statement.\0"
	.align 8
.LC114:
	.ascii "Going to build smaller expression statement.\0"
	.align 8
.LC115:
	.ascii "Going to build smaller or equal expression statement.\0"
	.align 8
.LC116:
	.ascii "Going to build equal expression statement.\0"
	.text
	.globl	BuildAssignAndCompareExprStatement
	.def	BuildAssignAndCompareExprStatement;	.scl	2;	.type	32;	.endef
	.seh_proc	BuildAssignAndCompareExprStatement
BuildAssignAndCompareExprStatement:
.LFB15:
	.loc 1 566 0
	.cfi_startproc
	pushq	%rbp
	.seh_pushreg	%rbp
	.cfi_def_cfa_offset 16
	.cfi_offset 6, -16
	movq	%rsp, %rbp
	.seh_setframe	%rbp, 0
	.cfi_def_cfa_register 6
	subq	$96, %rsp
	.seh_stackalloc	96
	.seh_endprologue
	movq	%rcx, 16(%rbp)
	movq	%rdx, 24(%rbp)
	movq	%r8, 32(%rbp)
	movl	%r9d, 40(%rbp)
	.loc 1 568 0
	movq	24(%rbp), %rax
	movq	%rax, %rcx
	call	expr_create_string
	movq	%rax, -16(%rbp)
	.loc 1 569 0
	movq	16(%rbp), %rcx
	call	expr_create_string
	movq	%rax, -8(%rbp)
	.loc 1 572 0
	cmpl	$9, 40(%rbp)
	ja	.L131
	movl	40(%rbp), %eax
	leaq	0(,%rax,4), %rdx
	leaq	.L121(%rip), %rax
	movl	(%rdx,%rax), %eax
	movslq	%eax, %rdx
	leaq	.L121(%rip), %rax
	addq	%rdx, %rax
	jmp	*%rax
	.section .rdata,"dr"
	.align 4
.L121:
	.long	.L131-.L121
	.long	.L120-.L121
	.long	.L122-.L121
	.long	.L123-.L121
	.long	.L124-.L121
	.long	.L125-.L121
	.long	.L126-.L121
	.long	.L127-.L121
	.long	.L128-.L121
	.long	.L129-.L121
	.text
.L120:
	.loc 1 574 0
	leaq	.LC108(%rip), %rcx
	call	puts
	.loc 1 575 0
	movq	-8(%rbp), %rcx
	movq	-16(%rbp), %rax
	movl	48(%rbp), %edx
	movl	%edx, 48(%rsp)
	movq	$0, 40(%rsp)
	movl	$0, 32(%rsp)
	movl	$0, %r9d
	movq	%rcx, %r8
	movq	%rax, %rdx
	movl	$4, %ecx
	call	expr_create
	movq	%rax, -24(%rbp)
	.loc 1 576 0
	jmp	.L130
.L122:
	.loc 1 578 0
	leaq	.LC109(%rip), %rcx
	call	puts
	.loc 1 579 0
	movq	-8(%rbp), %rcx
	movq	-16(%rbp), %rax
	movl	48(%rbp), %edx
	movl	%edx, 48(%rsp)
	movq	$0, 40(%rsp)
	movl	$0, 32(%rsp)
	movl	$0, %r9d
	movq	%rcx, %r8
	movq	%rax, %rdx
	movl	$5, %ecx
	call	expr_create
	movq	%rax, -24(%rbp)
	.loc 1 580 0
	jmp	.L130
.L123:
	.loc 1 582 0
	leaq	.LC110(%rip), %rcx
	call	puts
	.loc 1 583 0
	movq	-8(%rbp), %rcx
	movq	-16(%rbp), %rax
	movl	48(%rbp), %edx
	movl	%edx, 48(%rsp)
	movq	$0, 40(%rsp)
	movl	$0, 32(%rsp)
	movl	$0, %r9d
	movq	%rcx, %r8
	movq	%rax, %rdx
	movl	$6, %ecx
	call	expr_create
	movq	%rax, -24(%rbp)
	.loc 1 584 0
	jmp	.L130
.L124:
	.loc 1 586 0
	leaq	.LC111(%rip), %rcx
	call	puts
	.loc 1 587 0
	movq	-8(%rbp), %rcx
	movq	-16(%rbp), %rax
	movl	48(%rbp), %edx
	movl	%edx, 48(%rsp)
	movq	$0, 40(%rsp)
	movl	$0, 32(%rsp)
	movl	$0, %r9d
	movq	%rcx, %r8
	movq	%rax, %rdx
	movl	$7, %ecx
	call	expr_create
	movq	%rax, -24(%rbp)
	.loc 1 588 0
	jmp	.L130
.L125:
	.loc 1 590 0
	leaq	.LC112(%rip), %rcx
	call	puts
	.loc 1 591 0
	movq	-8(%rbp), %rcx
	movq	-16(%rbp), %rax
	movl	48(%rbp), %edx
	movl	%edx, 48(%rsp)
	movq	$0, 40(%rsp)
	movl	$0, 32(%rsp)
	movl	$0, %r9d
	movq	%rcx, %r8
	movq	%rax, %rdx
	movl	$11, %ecx
	call	expr_create
	movq	%rax, -24(%rbp)
	.loc 1 592 0
	jmp	.L130
.L126:
	.loc 1 594 0
	leaq	.LC113(%rip), %rcx
	call	puts
	.loc 1 595 0
	movq	-8(%rbp), %rcx
	movq	-16(%rbp), %rax
	movl	48(%rbp), %edx
	movl	%edx, 48(%rsp)
	movq	$0, 40(%rsp)
	movl	$0, 32(%rsp)
	movl	$0, %r9d
	movq	%rcx, %r8
	movq	%rax, %rdx
	movl	$12, %ecx
	call	expr_create
	movq	%rax, -24(%rbp)
	.loc 1 596 0
	jmp	.L130
.L127:
	.loc 1 598 0
	leaq	.LC114(%rip), %rcx
	call	puts
	.loc 1 599 0
	movq	-8(%rbp), %rcx
	movq	-16(%rbp), %rax
	movl	48(%rbp), %edx
	movl	%edx, 48(%rsp)
	movq	$0, 40(%rsp)
	movl	$0, 32(%rsp)
	movl	$0, %r9d
	movq	%rcx, %r8
	movq	%rax, %rdx
	movl	$13, %ecx
	call	expr_create
	movq	%rax, -24(%rbp)
	.loc 1 600 0
	jmp	.L130
.L128:
	.loc 1 602 0
	leaq	.LC115(%rip), %rcx
	call	puts
	.loc 1 603 0
	movq	-8(%rbp), %rcx
	movq	-16(%rbp), %rax
	movl	48(%rbp), %edx
	movl	%edx, 48(%rsp)
	movq	$0, 40(%rsp)
	movl	$0, 32(%rsp)
	movl	$0, %r9d
	movq	%rcx, %r8
	movq	%rax, %rdx
	movl	$14, %ecx
	call	expr_create
	movq	%rax, -24(%rbp)
	.loc 1 604 0
	jmp	.L130
.L129:
	.loc 1 606 0
	leaq	.LC116(%rip), %rcx
	call	puts
	.loc 1 607 0
	movq	-8(%rbp), %rcx
	movq	-16(%rbp), %rax
	movl	48(%rbp), %edx
	movl	%edx, 48(%rsp)
	movq	$0, 40(%rsp)
	movl	$0, 32(%rsp)
	movl	$0, %r9d
	movq	%rcx, %r8
	movq	%rax, %rdx
	movl	$15, %ecx
	call	expr_create
	movq	%rax, -24(%rbp)
	.loc 1 608 0
	jmp	.L130
.L131:
	.loc 1 610 0
	nop
.L130:
	.loc 1 613 0
	movq	-24(%rbp), %rdx
	movq	32(%rbp), %rax
	movq	%rdx, %r9
	movl	$0, %r8d
	movl	$0, %edx
	movq	%rax, %rcx
	call	push_commandList
	.loc 1 614 0
	nop
	addq	$96, %rsp
	popq	%rbp
	.cfi_restore 6
	.cfi_def_cfa 7, 8
	ret
	.cfi_endproc
.LFE15:
	.seh_endproc
	.section .rdata,"dr"
	.align 8
.LC117:
	.ascii "Going to build add declaration statement.\0"
	.text
	.globl	BuildDeclarationStatement
	.def	BuildDeclarationStatement;	.scl	2;	.type	32;	.endef
	.seh_proc	BuildDeclarationStatement
BuildDeclarationStatement:
.LFB16:
	.loc 1 617 0
	.cfi_startproc
	pushq	%rbp
	.seh_pushreg	%rbp
	.cfi_def_cfa_offset 16
	.cfi_offset 6, -16
	movq	%rsp, %rbp
	.seh_setframe	%rbp, 0
	.cfi_def_cfa_register 6
	subq	$112, %rsp
	.seh_stackalloc	112
	.seh_endprologue
	movq	%rcx, 16(%rbp)
	movq	%rdx, 24(%rbp)
	movq	%r8, 32(%rbp)
	.loc 1 618 0
	leaq	.LC117(%rip), %rcx
	call	puts
	.loc 1 619 0
	movq	16(%rbp), %rcx
	call	expr_create_string
	movq	%rax, -24(%rbp)
	.loc 1 620 0
	movq	-24(%rbp), %rdx
	movq	24(%rbp), %rax
	movl	$0, %r9d
	movq	%rdx, %r8
	movl	$0, %edx
	movq	%rax, %rcx
	call	decl_create
	movq	%rax, -16(%rbp)
	.loc 1 621 0
	movq	-16(%rbp), %rax
	movl	$-1, 72(%rsp)
	movq	$0, 64(%rsp)
	movq	$0, 56(%rsp)
	movq	$0, 48(%rsp)
	movq	$0, 40(%rsp)
	movq	$0, 32(%rsp)
	movl	$0, %r9d
	movl	$0, %r8d
	movq	%rax, %rdx
	movl	$0, %ecx
	call	stmt_create
	movq	%rax, -8(%rbp)
	.loc 1 622 0
	movq	-8(%rbp), %rdx
	movq	32(%rbp), %rax
	movl	$0, %r9d
	movq	%rdx, %r8
	movl	$0, %edx
	movq	%rax, %rcx
	call	push_commandList
	.loc 1 623 0
	nop
	addq	$112, %rsp
	popq	%rbp
	.cfi_restore 6
	.cfi_def_cfa 7, 8
	ret
	.cfi_endproc
.LFE16:
	.seh_endproc
	.section .rdata,"dr"
.LC118:
	.ascii "Going to build statement new.\0"
	.text
	.globl	BuildNewStatement
	.def	BuildNewStatement;	.scl	2;	.type	32;	.endef
	.seh_proc	BuildNewStatement
BuildNewStatement:
.LFB17:
	.loc 1 626 0
	.cfi_startproc
	pushq	%rbp
	.seh_pushreg	%rbp
	.cfi_def_cfa_offset 16
	.cfi_offset 6, -16
	movq	%rsp, %rbp
	.seh_setframe	%rbp, 0
	.cfi_def_cfa_register 6
	subq	$112, %rsp
	.seh_stackalloc	112
	.seh_endprologue
	movq	%rcx, 16(%rbp)
	movq	%rdx, 24(%rbp)
	movq	%r8, 32(%rbp)
	.loc 1 627 0
	leaq	.LC118(%rip), %rcx
	call	puts
	.loc 1 628 0
	movq	16(%rbp), %rax
	movq	208(%rax), %rax
	movq	%rax, 16(%rbp)
	.loc 1 629 0
	movq	16(%rbp), %rax
	movq	208(%rax), %rax
	movq	%rax, 16(%rbp)
	.loc 1 630 0
	movq	32(%rbp), %rax
	movq	%rax, %rcx
	call	expr_create_string
	movq	%rax, -24(%rbp)
	.loc 1 631 0
	movq	16(%rbp), %rax
	addq	$104, %rax
	movq	%rax, %rcx
	call	expr_create_string
	movq	%rax, -16(%rbp)
	.loc 1 632 0
	movq	-24(%rbp), %rdx
	movl	$-1, 72(%rsp)
	movq	$0, 64(%rsp)
	movq	$0, 56(%rsp)
	movq	$0, 48(%rsp)
	movq	$0, 40(%rsp)
	movq	-16(%rbp), %rax
	movq	%rax, 32(%rsp)
	movq	%rdx, %r9
	movl	$0, %r8d
	movl	$0, %edx
	movl	$14, %ecx
	call	stmt_create
	movq	%rax, -8(%rbp)
	.loc 1 633 0
	movq	-8(%rbp), %rdx
	movq	24(%rbp), %rax
	movl	$0, %r9d
	movq	%rdx, %r8
	movl	$0, %edx
	movq	%rax, %rcx
	call	push_commandList
	.loc 1 634 0
	nop
	addq	$112, %rsp
	popq	%rbp
	.cfi_restore 6
	.cfi_def_cfa 7, 8
	ret
	.cfi_endproc
.LFE17:
	.seh_endproc
	.globl	CheckIfMemberOfStatement
	.def	CheckIfMemberOfStatement;	.scl	2;	.type	32;	.endef
	.seh_proc	CheckIfMemberOfStatement
CheckIfMemberOfStatement:
.LFB18:
	.loc 1 636 0
	.cfi_startproc
	pushq	%rbp
	.seh_pushreg	%rbp
	.cfi_def_cfa_offset 16
	.cfi_offset 6, -16
	pushq	%rbx
	.seh_pushreg	%rbx
	.cfi_def_cfa_offset 24
	.cfi_offset 3, -24
	subq	$24, %rsp
	.seh_stackalloc	24
	.cfi_def_cfa_offset 48
	leaq	128(%rsp), %rbp
	.seh_setframe	%rbp, 128
	.cfi_def_cfa 6, -80
	.seh_endprologue
	movq	%rcx, %rbx
	movq	(%rbx), %rax
	movq	8(%rbx), %rdx
	movq	%rax, -128(%rbp)
	movq	%rdx, -120(%rbp)
	.loc 1 638 0
	movl	-128(%rbp), %eax
	cmpl	$1, %eax
	jne	.L135
	.loc 1 638 0 is_stmt 0 discriminator 1
	movl	$1, %eax
	jmp	.L136
.L135:
	.loc 1 639 0 is_stmt 1
	movl	-124(%rbp), %eax
	cmpl	$1, %eax
	jne	.L137
	.loc 1 639 0 is_stmt 0 discriminator 1
	movl	$2, %eax
	jmp	.L136
.L137:
	.loc 1 640 0 is_stmt 1
	movl	-120(%rbp), %eax
	cmpl	$1, %eax
	jne	.L138
	.loc 1 640 0 is_stmt 0 discriminator 1
	movl	$3, %eax
	jmp	.L136
.L138:
	.loc 1 641 0 is_stmt 1
	movl	-116(%rbp), %eax
	cmpl	$1, %eax
	jne	.L139
	.loc 1 641 0 is_stmt 0 discriminator 1
	movl	$4, %eax
	jmp	.L136
.L139:
	.loc 1 643 0 is_stmt 1
	movl	$-1, %eax
.L136:
	.loc 1 644 0
	addq	$24, %rsp
	popq	%rbx
	.cfi_restore 3
	popq	%rbp
	.cfi_restore 6
	.cfi_def_cfa 7, -8
	ret
	.cfi_endproc
.LFE18:
	.seh_endproc
	.globl	ClearFlags
	.def	ClearFlags;	.scl	2;	.type	32;	.endef
	.seh_proc	ClearFlags
ClearFlags:
.LFB19:
	.loc 1 646 0
	.cfi_startproc
	pushq	%rbp
	.seh_pushreg	%rbp
	.cfi_def_cfa_offset 16
	.cfi_offset 6, -16
	movq	%rsp, %rbp
	.seh_setframe	%rbp, 0
	.cfi_def_cfa_register 6
	.seh_endprologue
	movq	%rcx, 16(%rbp)
	.loc 1 648 0
	movq	16(%rbp), %rax
	movl	(%rax), %eax
	cmpl	$1, %eax
	jne	.L141
	.loc 1 648 0 is_stmt 0 discriminator 1
	movq	16(%rbp), %rax
	movl	$0, (%rax)
.L141:
	.loc 1 649 0 is_stmt 1
	movq	16(%rbp), %rax
	movl	4(%rax), %eax
	cmpl	$1, %eax
	jne	.L142
	.loc 1 649 0 is_stmt 0 discriminator 1
	movq	16(%rbp), %rax
	movl	$0, 4(%rax)
.L142:
	.loc 1 650 0 is_stmt 1
	movq	16(%rbp), %rax
	movl	8(%rax), %eax
	cmpl	$1, %eax
	jne	.L143
	.loc 1 650 0 is_stmt 0 discriminator 1
	movq	16(%rbp), %rax
	movl	$0, 8(%rax)
.L143:
	.loc 1 651 0 is_stmt 1
	movq	16(%rbp), %rax
	movl	12(%rax), %eax
	cmpl	$1, %eax
	jne	.L145
	.loc 1 651 0 is_stmt 0 discriminator 1
	movq	16(%rbp), %rax
	movl	$0, 12(%rax)
.L145:
	.loc 1 652 0 is_stmt 1
	nop
	popq	%rbp
	.cfi_restore 6
	.cfi_def_cfa 7, 8
	ret
	.cfi_endproc
.LFE19:
	.seh_endproc
	.section .rdata,"dr"
.LC119:
	.ascii "pointer symbol\0"
.LC120:
	.ascii "Pointer type array.\0"
.LC121:
	.ascii "The array type : %s\12\0"
.LC122:
	.ascii "int\0"
.LC123:
	.ascii "string\0"
.LC124:
	.ascii "float\0"
.LC125:
	.ascii "void\0"
.LC126:
	.ascii "bool\0"
.LC127:
	.ascii "char\0"
	.text
	.globl	CheckArrayType
	.def	CheckArrayType;	.scl	2;	.type	32;	.endef
	.seh_proc	CheckArrayType
CheckArrayType:
.LFB20:
	.loc 1 655 0
	.cfi_startproc
	pushq	%rbp
	.seh_pushreg	%rbp
	.cfi_def_cfa_offset 16
	.cfi_offset 6, -16
	movq	%rsp, %rbp
	.seh_setframe	%rbp, 0
	.cfi_def_cfa_register 6
	subq	$48, %rsp
	.seh_stackalloc	48
	.seh_endprologue
	movq	%rcx, 16(%rbp)
	.loc 1 656 0
	movl	$0, -8(%rbp)
	.loc 1 657 0
	movl	$0, -4(%rbp)
	.loc 1 659 0
	movq	16(%rbp), %rax
	addq	$4, %rax
	leaq	.LC119(%rip), %rdx
	movq	%rax, %rcx
	call	strcmp
	testl	%eax, %eax
	jne	.L147
	.loc 1 661 0
	leaq	.LC120(%rip), %rcx
	call	puts
	.loc 1 662 0
	movl	$1, -8(%rbp)
.L147:
	.loc 1 664 0
	movq	16(%rbp), %rax
	movq	208(%rax), %rax
	movq	%rax, 16(%rbp)
	.loc 1 665 0
	movq	16(%rbp), %rax
	addq	$104, %rax
	movq	%rax, %rdx
	leaq	.LC121(%rip), %rcx
	call	printf
	.loc 1 666 0
	movq	16(%rbp), %rax
	addq	$104, %rax
	leaq	.LC122(%rip), %rdx
	movq	%rax, %rcx
	call	strcmp
	testl	%eax, %eax
	jne	.L148
	.loc 1 666 0 is_stmt 0 discriminator 1
	cmpl	$1, -8(%rbp)
	je	.L148
	.loc 1 666 0 discriminator 2
	movl	$13, -4(%rbp)
	jmp	.L149
.L148:
	.loc 1 667 0 is_stmt 1
	movq	16(%rbp), %rax
	addq	$104, %rax
	leaq	.LC122(%rip), %rdx
	movq	%rax, %rcx
	call	strcmp
	testl	%eax, %eax
	jne	.L150
	.loc 1 667 0 is_stmt 0 discriminator 1
	cmpl	$1, -8(%rbp)
	jne	.L150
	.loc 1 667 0 discriminator 2
	movl	$19, -4(%rbp)
	jmp	.L149
.L150:
	.loc 1 668 0 is_stmt 1
	movq	16(%rbp), %rax
	addq	$104, %rax
	leaq	.LC123(%rip), %rdx
	movq	%rax, %rcx
	call	strcmp
	testl	%eax, %eax
	jne	.L151
	.loc 1 668 0 is_stmt 0 discriminator 1
	cmpl	$1, -8(%rbp)
	je	.L151
	.loc 1 668 0 discriminator 2
	movl	$14, -4(%rbp)
	jmp	.L149
.L151:
	.loc 1 669 0 is_stmt 1
	movq	16(%rbp), %rax
	addq	$104, %rax
	leaq	.LC123(%rip), %rdx
	movq	%rax, %rcx
	call	strcmp
	testl	%eax, %eax
	jne	.L152
	.loc 1 669 0 is_stmt 0 discriminator 1
	cmpl	$1, -8(%rbp)
	jne	.L152
	.loc 1 669 0 discriminator 2
	movl	$20, -4(%rbp)
	jmp	.L149
.L152:
	.loc 1 670 0 is_stmt 1
	movq	16(%rbp), %rax
	addq	$104, %rax
	leaq	.LC124(%rip), %rdx
	movq	%rax, %rcx
	call	strcmp
	testl	%eax, %eax
	jne	.L153
	.loc 1 670 0 is_stmt 0 discriminator 1
	cmpl	$1, -8(%rbp)
	je	.L153
	.loc 1 670 0 discriminator 2
	movl	$15, -4(%rbp)
	jmp	.L149
.L153:
	.loc 1 671 0 is_stmt 1
	movq	16(%rbp), %rax
	addq	$104, %rax
	leaq	.LC124(%rip), %rdx
	movq	%rax, %rcx
	call	strcmp
	testl	%eax, %eax
	jne	.L154
	.loc 1 671 0 is_stmt 0 discriminator 1
	cmpl	$1, -8(%rbp)
	jne	.L154
	.loc 1 671 0 discriminator 2
	movl	$21, -4(%rbp)
	jmp	.L149
.L154:
	.loc 1 672 0 is_stmt 1
	movq	16(%rbp), %rax
	addq	$104, %rax
	leaq	.LC125(%rip), %rdx
	movq	%rax, %rcx
	call	strcmp
	testl	%eax, %eax
	jne	.L155
	.loc 1 672 0 is_stmt 0 discriminator 1
	cmpl	$1, -8(%rbp)
	je	.L155
	.loc 1 672 0 discriminator 2
	movl	$16, -4(%rbp)
	jmp	.L149
.L155:
	.loc 1 673 0 is_stmt 1
	movq	16(%rbp), %rax
	addq	$104, %rax
	leaq	.LC125(%rip), %rdx
	movq	%rax, %rcx
	call	strcmp
	testl	%eax, %eax
	jne	.L149
	.loc 1 673 0 is_stmt 0 discriminator 1
	cmpl	$1, -8(%rbp)
	jne	.L149
	.loc 1 673 0 discriminator 2
	movl	$22, -4(%rbp)
.L149:
	.loc 1 674 0 is_stmt 1
	movq	16(%rbp), %rax
	addq	$104, %rax
	leaq	.LC126(%rip), %rdx
	movq	%rax, %rcx
	call	strcmp
	testl	%eax, %eax
	jne	.L156
	.loc 1 674 0 is_stmt 0 discriminator 1
	movl	$17, -4(%rbp)
	jmp	.L157
.L156:
	.loc 1 675 0 is_stmt 1
	movq	16(%rbp), %rax
	addq	$104, %rax
	leaq	.LC127(%rip), %rdx
	movq	%rax, %rcx
	call	strcmp
	testl	%eax, %eax
	jne	.L158
	.loc 1 675 0 is_stmt 0 discriminator 1
	cmpl	$1, -8(%rbp)
	je	.L158
	.loc 1 675 0 discriminator 2
	movl	$18, -4(%rbp)
	jmp	.L157
.L158:
	.loc 1 676 0 is_stmt 1
	movq	16(%rbp), %rax
	addq	$104, %rax
	leaq	.LC127(%rip), %rdx
	movq	%rax, %rcx
	call	strcmp
	testl	%eax, %eax
	jne	.L157
	.loc 1 676 0 is_stmt 0 discriminator 1
	cmpl	$1, -8(%rbp)
	jne	.L157
	.loc 1 676 0 discriminator 2
	movl	$23, -4(%rbp)
.L157:
	.loc 1 678 0 is_stmt 1
	movl	-4(%rbp), %eax
	.loc 1 679 0
	addq	$48, %rsp
	popq	%rbp
	.cfi_restore 6
	.cfi_def_cfa 7, 8
	ret
	.cfi_endproc
.LFE20:
	.seh_endproc
.Letext0:
	.file 2 "/usr/lib/gcc/x86_64-pc-cygwin/7.4.0/include/stddef.h"
	.file 3 "/usr/include/sys/lock.h"
	.file 4 "/usr/include/sys/_types.h"
	.file 5 "/usr/include/sys/reent.h"
	.file 6 "/usr/include/ctype.h"
	.file 7 "./src/../inc/../inc/parse_state.h"
	.file 8 "./src/../inc/../inc/ast.h"
	.file 9 "./src/../inc/../inc/command.h"
	.file 10 "./src/../inc/parserFunctions.h"
	.section	.rdata$.refptr.__stack_chk_guard, "dr"
	.globl	.refptr.__stack_chk_guard
	.linkonce	discard
.refptr.__stack_chk_guard:
	.quad	__stack_chk_guard
