	.file	"parse_state.c"
	.text
.Ltext0:
	.cfi_sections	.debug_frame
	.section .rdata,"dr"
.LC0:
	.ascii ",\0"
.LC1:
	.ascii "comma\0"
.LC2:
	.ascii "end of command\0"
	.text
	.globl	make_parse_stateList
	.def	make_parse_stateList;	.scl	2;	.type	32;	.endef
	.seh_proc	make_parse_stateList
make_parse_stateList:
.LFB9:
	.file 1 "./src/parse_state.c"
	.loc 1 6 0
	.cfi_startproc
	pushq	%rbp
	.seh_pushreg	%rbp
	.cfi_def_cfa_offset 16
	.cfi_offset 6, -16
	subq	$288, %rsp
	.seh_stackalloc	288
	.cfi_def_cfa_offset 304
	leaq	128(%rsp), %rbp
	.seh_setframe	%rbp, 128
	.cfi_def_cfa 6, 176
	.seh_endprologue
	movq	%rcx, 176(%rbp)
	.loc 1 7 0
	movl	$216, %ecx
	call	malloc
	movq	%rax, 136(%rbp)
	.loc 1 8 0
	movl	$0, 156(%rbp)
	.loc 1 9 0
	movl	$0, 152(%rbp)
	.loc 1 15 0
	leaq	16(%rbp), %rax
	movl	$100, %r8d
	movl	$0, %edx
	movq	%rax, %rcx
	call	memset
	.loc 1 16 0
	leaq	-96(%rbp), %rax
	movl	$100, %r8d
	movl	$0, %edx
	movq	%rax, %rcx
	call	memset
	.loc 1 18 0
	movq	176(%rbp), %rax
	movq	%rax, 144(%rbp)
	.loc 1 21 0
	movq	144(%rbp), %rax
	movq	152(%rax), %rax
	movq	%rax, 144(%rbp)
	.loc 1 23 0
	jmp	.L2
.L9:
	.loc 1 24 0
	movl	156(%rbp), %eax
	movl	%eax, 132(%rbp)
	.loc 1 25 0
	movq	144(%rbp), %rax
	leaq	.LC0(%rip), %rdx
	movq	%rax, %rcx
	call	strtok
	movq	%rax, 120(%rbp)
	.loc 1 26 0
	movq	120(%rbp), %rdx
	leaq	16(%rbp), %rax
	movq	%rax, %rcx
	call	strcpy
	.loc 1 28 0
	leaq	16(%rbp), %rax
	leaq	.LC1(%rip), %rdx
	movq	%rax, %rcx
	call	strcmp
	testl	%eax, %eax
	jne	.L3
	.loc 1 29 0
	leaq	-96(%rbp), %rax
	movl	$2567207, (%rax)
	.loc 1 30 0
	leaq	.LC0(%rip), %rdx
	movl	$0, %ecx
	call	strtok
	movq	%rax, 120(%rbp)
	.loc 1 31 0
	leaq	.LC0(%rip), %rdx
	movl	$0, %ecx
	call	strtok
	movq	%rax, 120(%rbp)
	.loc 1 32 0
	movq	144(%rbp), %rax
	movq	152(%rax), %rax
	movq	%rax, 144(%rbp)
	.loc 1 33 0
	leaq	-96(%rbp), %r8
	leaq	16(%rbp), %rcx
	movl	132(%rbp), %edx
	movq	136(%rbp), %rax
	movq	%r8, %r9
	movq	%rcx, %r8
	movq	%rax, %rcx
	call	push_parseList
	.loc 1 34 0
	leaq	16(%rbp), %rax
	movl	$100, %r8d
	movl	$0, %edx
	movq	%rax, %rcx
	call	memset
	.loc 1 35 0
	leaq	-96(%rbp), %rax
	movl	$100, %r8d
	movl	$0, %edx
	movq	%rax, %rcx
	call	memset
	.loc 1 36 0
	addl	$1, 156(%rbp)
	.loc 1 37 0
	jmp	.L2
.L3:
	.loc 1 40 0
	leaq	.LC0(%rip), %rdx
	movl	$0, %ecx
	call	strtok
	movq	%rax, 120(%rbp)
	.loc 1 42 0
	cmpq	$0, 120(%rbp)
	je	.L4
	.loc 1 43 0
	movq	120(%rbp), %rdx
	leaq	-96(%rbp), %rax
	movq	%rax, %rcx
	call	strcpy
	jmp	.L5
.L4:
	.loc 1 46 0
	leaq	16(%rbp), %rax
	leaq	.LC2(%rip), %rdx
	movq	%rax, %rcx
	call	strcmp
	testl	%eax, %eax
	jne	.L6
	.loc 1 47 0
	leaq	-96(%rbp), %rax
	movl	$661543975, (%rax)
	movb	$0, 4(%rax)
	jmp	.L5
.L6:
	.loc 1 50 0
	movl	$1, 152(%rbp)
.L5:
	.loc 1 54 0
	cmpl	$0, 152(%rbp)
	jne	.L11
	.loc 1 58 0
	leaq	.LC0(%rip), %rdx
	movl	$0, %ecx
	call	strtok
	movq	%rax, 120(%rbp)
	.loc 1 60 0
	movq	144(%rbp), %rax
	movq	152(%rax), %rax
	movq	%rax, 144(%rbp)
	.loc 1 61 0
	leaq	-96(%rbp), %r8
	leaq	16(%rbp), %rcx
	movl	132(%rbp), %edx
	movq	136(%rbp), %rax
	movq	%r8, %r9
	movq	%rcx, %r8
	movq	%rax, %rcx
	call	push_parseList
	.loc 1 62 0
	leaq	16(%rbp), %rax
	movl	$100, %r8d
	movl	$0, %edx
	movq	%rax, %rcx
	call	memset
	.loc 1 63 0
	leaq	-96(%rbp), %rax
	movl	$100, %r8d
	movl	$0, %edx
	movq	%rax, %rcx
	call	memset
	.loc 1 64 0
	addl	$1, 156(%rbp)
.L2:
	.loc 1 23 0
	cmpq	$0, 144(%rbp)
	jne	.L9
	jmp	.L8
.L11:
	.loc 1 55 0
	nop
.L8:
	.loc 1 67 0
	movq	136(%rbp), %rax
	.loc 1 68 0
	addq	$288, %rsp
	popq	%rbp
	.cfi_restore 6
	.cfi_def_cfa 7, -280
	ret
	.cfi_endproc
.LFE9:
	.seh_endproc
	.globl	removeLast
	.def	removeLast;	.scl	2;	.type	32;	.endef
	.seh_proc	removeLast
removeLast:
.LFB10:
	.loc 1 73 0
	.cfi_startproc
	pushq	%rbp
	.seh_pushreg	%rbp
	.cfi_def_cfa_offset 16
	.cfi_offset 6, -16
	movq	%rsp, %rbp
	.seh_setframe	%rbp, 0
	.cfi_def_cfa_register 6
	subq	$48, %rsp
	.seh_stackalloc	48
	.seh_endprologue
	movq	%rcx, 16(%rbp)
	.loc 1 74 0
	movl	$0, -12(%rbp)
	.loc 1 76 0
	movq	16(%rbp), %rax
	movq	208(%rax), %rax
	testq	%rax, %rax
	jne	.L13
	.loc 1 77 0
	movq	16(%rbp), %rax
	movl	(%rax), %eax
	movl	%eax, -12(%rbp)
	.loc 1 78 0
	movq	16(%rbp), %rcx
	call	free
	.loc 1 79 0
	movl	-12(%rbp), %eax
	jmp	.L14
.L13:
	.loc 1 82 0
	movq	16(%rbp), %rax
	movq	%rax, -8(%rbp)
	.loc 1 83 0
	jmp	.L15
.L16:
	.loc 1 84 0
	movq	-8(%rbp), %rax
	movq	208(%rax), %rax
	movq	%rax, -8(%rbp)
.L15:
	.loc 1 83 0
	movq	-8(%rbp), %rax
	movq	208(%rax), %rax
	movq	208(%rax), %rax
	testq	%rax, %rax
	jne	.L16
	.loc 1 87 0
	movq	-8(%rbp), %rax
	movq	208(%rax), %rax
	movl	(%rax), %eax
	movl	%eax, -12(%rbp)
	.loc 1 88 0
	movq	-8(%rbp), %rax
	movq	208(%rax), %rax
	movq	%rax, %rcx
	call	free
	.loc 1 89 0
	movq	-8(%rbp), %rax
	movq	$0, 208(%rax)
	.loc 1 90 0
	movl	-12(%rbp), %eax
.L14:
	.loc 1 91 0
	addq	$48, %rsp
	popq	%rbp
	.cfi_restore 6
	.cfi_def_cfa 7, 8
	ret
	.cfi_endproc
.LFE10:
	.seh_endproc
	.section .rdata,"dr"
.LC3:
	.ascii "Counter-Position %d : %d\12\0"
.LC4:
	.ascii "Counter-Type %d : %s\12\0"
.LC5:
	.ascii "Counter-Value %d : %s\12\0"
	.text
	.globl	print_parseStateList
	.def	print_parseStateList;	.scl	2;	.type	32;	.endef
	.seh_proc	print_parseStateList
print_parseStateList:
.LFB11:
	.loc 1 96 0
	.cfi_startproc
	pushq	%rbp
	.seh_pushreg	%rbp
	.cfi_def_cfa_offset 16
	.cfi_offset 6, -16
	movq	%rsp, %rbp
	.seh_setframe	%rbp, 0
	.cfi_def_cfa_register 6
	subq	$48, %rsp
	.seh_stackalloc	48
	.seh_endprologue
	movq	%rcx, 16(%rbp)
	.loc 1 97 0
	movq	16(%rbp), %rax
	movq	%rax, -8(%rbp)
	.loc 1 98 0
	movl	$0, -12(%rbp)
	.loc 1 101 0
	jmp	.L18
.L19:
	.loc 1 102 0
	addl	$1, -12(%rbp)
	.loc 1 103 0
	movq	-8(%rbp), %rax
	movl	(%rax), %edx
	movl	-12(%rbp), %eax
	movl	%edx, %r8d
	movl	%eax, %edx
	leaq	.LC3(%rip), %rcx
	call	printf
	.loc 1 104 0
	movq	-8(%rbp), %rax
	leaq	4(%rax), %rdx
	movl	-12(%rbp), %eax
	movq	%rdx, %r8
	movl	%eax, %edx
	leaq	.LC4(%rip), %rcx
	call	printf
	.loc 1 105 0
	movq	-8(%rbp), %rax
	leaq	104(%rax), %rdx
	movl	-12(%rbp), %eax
	movq	%rdx, %r8
	movl	%eax, %edx
	leaq	.LC5(%rip), %rcx
	call	printf
	.loc 1 106 0
	movq	-8(%rbp), %rax
	movq	208(%rax), %rax
	movq	%rax, -8(%rbp)
.L18:
	.loc 1 101 0
	cmpq	$0, -8(%rbp)
	jne	.L19
	.loc 1 108 0
	nop
	addq	$48, %rsp
	popq	%rbp
	.cfi_restore 6
	.cfi_def_cfa 7, 8
	ret
	.cfi_endproc
.LFE11:
	.seh_endproc
	.globl	push_parseList
	.def	push_parseList;	.scl	2;	.type	32;	.endef
	.seh_proc	push_parseList
push_parseList:
.LFB12:
	.loc 1 113 0
	.cfi_startproc
	pushq	%rbp
	.seh_pushreg	%rbp
	.cfi_def_cfa_offset 16
	.cfi_offset 6, -16
	movq	%rsp, %rbp
	.seh_setframe	%rbp, 0
	.cfi_def_cfa_register 6
	subq	$48, %rsp
	.seh_stackalloc	48
	.seh_endprologue
	movq	%rcx, 16(%rbp)
	movl	%edx, 24(%rbp)
	movq	%r8, 32(%rbp)
	movq	%r9, 40(%rbp)
	.loc 1 114 0
	movq	16(%rbp), %rax
	movq	%rax, -8(%rbp)
	.loc 1 115 0
	jmp	.L21
.L22:
	.loc 1 116 0
	movq	-8(%rbp), %rax
	movq	208(%rax), %rax
	movq	%rax, -8(%rbp)
.L21:
	.loc 1 115 0
	movq	-8(%rbp), %rax
	movq	208(%rax), %rax
	testq	%rax, %rax
	jne	.L22
	.loc 1 118 0
	movl	$216, %ecx
	call	malloc
	movq	%rax, %rdx
	movq	-8(%rbp), %rax
	movq	%rdx, 208(%rax)
	.loc 1 119 0
	movq	-8(%rbp), %rax
	movq	208(%rax), %rax
	movl	24(%rbp), %edx
	movl	%edx, (%rax)
	.loc 1 120 0
	movq	-8(%rbp), %rax
	movq	208(%rax), %rax
	leaq	4(%rax), %rcx
	movq	32(%rbp), %rax
	movq	%rax, %rdx
	call	strcpy
	.loc 1 121 0
	movq	-8(%rbp), %rax
	movq	208(%rax), %rax
	leaq	104(%rax), %rcx
	movq	40(%rbp), %rax
	movq	%rax, %rdx
	call	strcpy
	.loc 1 122 0
	movq	-8(%rbp), %rax
	movq	208(%rax), %rax
	movq	$0, 208(%rax)
	.loc 1 123 0
	nop
	addq	$48, %rsp
	popq	%rbp
	.cfi_restore 6
	.cfi_def_cfa 7, 8
	ret
	.cfi_endproc
.LFE12:
	.seh_endproc
.Letext0:
	.file 2 "/usr/lib/gcc/x86_64-pc-cygwin/7.4.0/include/stddef.h"
	.file 3 "/usr/include/sys/lock.h"
	.file 4 "/usr/include/sys/_types.h"
	.file 5 "/usr/include/sys/reent.h"
	.file 6 "/usr/include/ctype.h"
	.file 7 "./src/../inc/lexer_node.h"
	.file 8 "./src/../inc/parse_state.h"